{
   <insert_a_suppression_name_here>
   Memcheck:Leak
   match-leak-kinds: possible
   fun:malloc
   obj:*
   obj:*
   obj:*
   obj:*
   obj:*
   obj:*
   obj:*
   obj:*
   obj:*
   obj:*
   obj:/usr/lib/libGLX_mesa.so.0.0.0
}
{
   <insert_a_suppression_name_here>
   Memcheck:Leak
   match-leak-kinds: possible
   fun:malloc
   obj:*
   obj:*
   obj:*
   obj:*
   obj:*
   obj:*
   obj:*
   obj:*
   obj:*
   obj:*
   obj:*
}
{
   <insert_a_suppression_name_here>
   Memcheck:Leak
   match-leak-kinds: possible
   fun:malloc
   obj:*
   obj:*
   obj:*
   obj:*
   obj:*
   obj:*
   obj:*
   obj:*
   obj:*
   obj:*
   obj:*
}
{
   <insert_a_suppression_name_here>
   Memcheck:Leak
   match-leak-kinds: possible
   fun:malloc
   obj:*
   obj:*
   obj:*
   obj:*
   obj:*
   obj:*
   obj:*
   obj:*
   obj:*
   obj:*
   obj:*
}
{
   <insert_a_suppression_name_here>
   Memcheck:Leak
   match-leak-kinds: possible
   fun:malloc
   obj:*
   obj:*
   obj:*
   obj:*
   obj:*
   obj:*
   obj:*
   obj:*
   obj:*
   obj:*
   obj:*
}
{
   <insert_a_suppression_name_here>
   Memcheck:Leak
   match-leak-kinds: possible
   fun:malloc
   obj:*
   obj:*
   obj:*
   obj:*
   obj:*
   obj:*
   obj:*
   obj:*
   obj:*
   obj:*
   obj:*
}
{
   <insert_a_suppression_name_here>
   Memcheck:Leak
   match-leak-kinds: possible
   fun:malloc
   obj:*
   obj:*
   obj:*
   obj:*
   obj:*
   obj:*
   obj:*
   obj:*
   obj:*
   obj:*
   obj:*
}
{
   <insert_a_suppression_name_here>
   Memcheck:Leak
   match-leak-kinds: possible
   fun:malloc
   obj:*
   obj:*
   obj:*
   obj:*
   obj:*
   obj:*
   obj:*
   obj:*
   obj:*
   obj:*
   obj:*
}
{
   <insert_a_suppression_name_here>
   Memcheck:Leak
   match-leak-kinds: possible
   fun:malloc
   obj:*
   obj:*
   obj:*
   obj:*
   obj:*
   obj:*
   obj:*
   obj:*
   obj:*
   obj:*
   obj:*
}
{
   <insert_a_suppression_name_here>
   Memcheck:Leak
   match-leak-kinds: possible
   fun:malloc
   obj:*
   obj:*
   obj:*
   obj:*
   obj:*
   obj:*
   obj:*
   obj:*
   obj:*
   obj:*
   obj:*
}
{
   <insert_a_suppression_name_here>
   Memcheck:Leak
   match-leak-kinds: possible
   fun:malloc
   obj:*
   obj:*
   obj:*
   obj:*
   obj:*
   obj:*
   obj:*
   obj:*
   obj:*
   obj:/usr/lib/libGLX_mesa.so.0.0.0
   obj:/usr/lib/libGLX_mesa.so.0.0.0
}
{
   <insert_a_suppression_name_here>
   Memcheck:Leak
   match-leak-kinds: possible
   fun:malloc
   obj:*
   obj:*
   obj:*
   obj:*
   obj:*
   obj:*
   obj:*
   obj:*
   obj:*
   obj:*
   obj:/usr/lib/libGLX_mesa.so.0.0.0
}
{
   <insert_a_suppression_name_here>
   Memcheck:Leak
   match-leak-kinds: possible
   fun:malloc
   obj:*
   obj:*
   obj:*
   obj:*
   obj:*
   obj:*
   obj:*
   obj:*
   obj:*
   obj:/usr/lib/libGLX_mesa.so.0.0.0
   obj:/usr/lib/libGLX_mesa.so.0.0.0
}
{
   <insert_a_suppression_name_here>
   Memcheck:Leak
   match-leak-kinds: possible
   fun:malloc
   obj:*
   obj:*
   obj:*
   obj:*
   obj:*
   obj:*
   obj:*
   obj:*
   obj:*
   obj:*
   obj:/usr/lib/libGLX_mesa.so.0.0.0
}
{
   <insert_a_suppression_name_here>
   Memcheck:Leak
   match-leak-kinds: possible
   fun:malloc
   obj:*
   obj:*
   obj:*
   obj:*
   obj:*
   obj:*
   obj:*
   obj:*
   obj:/usr/lib/libGLX_mesa.so.0.0.0
   obj:/usr/lib/libGLX_mesa.so.0.0.0
   obj:/usr/lib/libGLX_mesa.so.0.0.0
}
{
   <insert_a_suppression_name_here>
   Memcheck:Leak
   match-leak-kinds: possible
   fun:malloc
   obj:*
   obj:*
   obj:*
   obj:*
   obj:*
   obj:*
   obj:*
   obj:*
   obj:*
   obj:/usr/lib/libGLX_mesa.so.0.0.0
   obj:/usr/lib/libGLX_mesa.so.0.0.0
}
{
   <insert_a_suppression_name_here>
   Memcheck:Leak
   match-leak-kinds: possible
   fun:malloc
   fun:_ZNK4llvm11LLVMContext11getMDKindIDENS_9StringRefE
   fun:_ZN4llvm11LLVMContextC1Ev
   fun:LLVMContextCreate
   obj:*
   obj:*
   obj:*
   obj:*
   obj:*
   obj:/usr/lib/libGLX_mesa.so.0.0.0
   obj:/usr/lib/libGLX_mesa.so.0.0.0
   obj:/usr/lib/libGLX_mesa.so.0.0.0
}
{
   <insert_a_suppression_name_here>
   Memcheck:Leak
   match-leak-kinds: possible
   fun:malloc
   obj:*
   obj:*
   obj:*
   obj:*
   obj:*
   obj:*
   obj:*
   obj:*
   obj:*
   obj:*
   obj:/usr/lib/libGLX_mesa.so.0.0.0
}
{
   <insert_a_suppression_name_here>
   Memcheck:Leak
   match-leak-kinds: possible
   fun:malloc
   fun:_ZNK4llvm11LLVMContext11getMDKindIDENS_9StringRefE
   fun:_ZN4llvm11LLVMContextC1Ev
   fun:LLVMContextCreate
   obj:*
   obj:*
   obj:*
   obj:*
   obj:*
   obj:/usr/lib/libGLX_mesa.so.0.0.0
   obj:/usr/lib/libGLX_mesa.so.0.0.0
   obj:/usr/lib/libGLX_mesa.so.0.0.0
}
{
   <insert_a_suppression_name_here>
   Memcheck:Leak
   match-leak-kinds: possible
   fun:malloc
   fun:_ZNK4llvm11LLVMContext11getMDKindIDENS_9StringRefE
   fun:_ZN4llvm11LLVMContextC1Ev
   fun:LLVMContextCreate
   obj:*
   obj:*
   obj:*
   obj:*
   obj:*
   obj:/usr/lib/libGLX_mesa.so.0.0.0
   obj:/usr/lib/libGLX_mesa.so.0.0.0
   obj:/usr/lib/libGLX_mesa.so.0.0.0
}
{
   <insert_a_suppression_name_here>
   Memcheck:Leak
   match-leak-kinds: possible
   fun:malloc
   fun:_ZNK4llvm11LLVMContext11getMDKindIDENS_9StringRefE
   fun:_ZN4llvm11LLVMContextC1Ev
   fun:LLVMContextCreate
   obj:*
   obj:*
   obj:*
   obj:*
   obj:*
   obj:/usr/lib/libGLX_mesa.so.0.0.0
   obj:/usr/lib/libGLX_mesa.so.0.0.0
   obj:/usr/lib/libGLX_mesa.so.0.0.0
}
{
   <insert_a_suppression_name_here>
   Memcheck:Leak
   match-leak-kinds: possible
   fun:malloc
   fun:_ZNK4llvm11LLVMContext11getMDKindIDENS_9StringRefE
   fun:_ZN4llvm11LLVMContextC1Ev
   fun:LLVMContextCreate
   obj:*
   obj:*
   obj:*
   obj:*
   obj:*
   obj:/usr/lib/libGLX_mesa.so.0.0.0
   obj:/usr/lib/libGLX_mesa.so.0.0.0
   obj:/usr/lib/libGLX_mesa.so.0.0.0
}
{
   <insert_a_suppression_name_here>
   Memcheck:Leak
   match-leak-kinds: possible
   fun:malloc
   fun:_ZNK4llvm11LLVMContext11getMDKindIDENS_9StringRefE
   fun:_ZN4llvm11LLVMContextC1Ev
   fun:LLVMContextCreate
   obj:*
   obj:*
   obj:*
   obj:*
   obj:*
   obj:/usr/lib/libGLX_mesa.so.0.0.0
   obj:/usr/lib/libGLX_mesa.so.0.0.0
   obj:/usr/lib/libGLX_mesa.so.0.0.0
}
{
   <insert_a_suppression_name_here>
   Memcheck:Leak
   match-leak-kinds: possible
   fun:malloc
   fun:_ZN4llvm15LLVMContextImpl20getOrInsertBundleTagENS_9StringRefE
   fun:_ZN4llvm11LLVMContextC1Ev
   fun:LLVMContextCreate
   obj:*
   obj:*
   obj:*
   obj:*
   obj:*
   obj:/usr/lib/libGLX_mesa.so.0.0.0
   obj:/usr/lib/libGLX_mesa.so.0.0.0
   obj:/usr/lib/libGLX_mesa.so.0.0.0
}
{
   <insert_a_suppression_name_here>
   Memcheck:Leak
   match-leak-kinds: possible
   fun:malloc
   fun:_ZNK4llvm11LLVMContext11getMDKindIDENS_9StringRefE
   fun:_ZN4llvm11LLVMContextC1Ev
   fun:LLVMContextCreate
   obj:*
   obj:*
   obj:*
   obj:*
   obj:*
   obj:/usr/lib/libGLX_mesa.so.0.0.0
   obj:/usr/lib/libGLX_mesa.so.0.0.0
   obj:/usr/lib/libGLX_mesa.so.0.0.0
}
{
   <insert_a_suppression_name_here>
   Memcheck:Leak
   match-leak-kinds: possible
   fun:malloc
   fun:_ZNK4llvm11LLVMContext11getMDKindIDENS_9StringRefE
   fun:_ZN4llvm11LLVMContextC1Ev
   fun:LLVMContextCreate
   obj:*
   obj:*
   obj:*
   obj:*
   obj:*
   obj:/usr/lib/libGLX_mesa.so.0.0.0
   obj:/usr/lib/libGLX_mesa.so.0.0.0
   obj:/usr/lib/libGLX_mesa.so.0.0.0
}
{
   <insert_a_suppression_name_here>
   Memcheck:Leak
   match-leak-kinds: possible
   fun:malloc
   fun:_ZNK4llvm11LLVMContext11getMDKindIDENS_9StringRefE
   fun:_ZN4llvm11LLVMContextC1Ev
   fun:LLVMContextCreate
   obj:*
   obj:*
   obj:*
   obj:*
   obj:*
   obj:/usr/lib/libGLX_mesa.so.0.0.0
   obj:/usr/lib/libGLX_mesa.so.0.0.0
   obj:/usr/lib/libGLX_mesa.so.0.0.0
}
{
   <insert_a_suppression_name_here>
   Memcheck:Leak
   match-leak-kinds: possible
   fun:malloc
   fun:_ZN4llvm15LLVMContextImpl20getOrInsertBundleTagENS_9StringRefE
   fun:_ZN4llvm11LLVMContextC1Ev
   fun:LLVMContextCreate
   obj:*
   obj:*
   obj:*
   obj:*
   obj:*
   obj:/usr/lib/libGLX_mesa.so.0.0.0
   obj:/usr/lib/libGLX_mesa.so.0.0.0
   obj:/usr/lib/libGLX_mesa.so.0.0.0
}
{
   <insert_a_suppression_name_here>
   Memcheck:Leak
   match-leak-kinds: possible
   fun:malloc
   obj:*
   obj:*
   obj:*
   obj:*
   obj:*
   obj:*
   obj:*
   obj:*
   obj:*
   obj:*
   obj:/usr/lib/libGLX_mesa.so.0.0.0
}
{
   <insert_a_suppression_name_here>
   Memcheck:Leak
   match-leak-kinds: possible
   fun:malloc
   obj:*
   obj:*
   obj:*
   obj:*
   obj:*
   obj:*
   obj:*
   obj:*
   obj:*
   obj:*
   obj:/usr/lib/libGLX_mesa.so.0.0.0
}
{
   <insert_a_suppression_name_here>
   Memcheck:Leak
   match-leak-kinds: possible
   fun:_Znam
   fun:_ZN4llvm5APInt14AssignSlowCaseERKS0_
   fun:_ZN4llvm11ConstantInt3getERNS_11LLVMContextERKNS_5APIntE
   fun:_ZN4llvm11ConstantInt3getEPNS_11IntegerTypeEmb
   fun:_ZN4llvm11ConstantInt3getEPNS_4TypeEmb
   fun:_ZN4llvm8Constant12getNullValueEPNS_4TypeE
   obj:*
   obj:*
   obj:*
   obj:*
   obj:*
   obj:*
}
{
   <insert_a_suppression_name_here>
   Memcheck:Leak
   match-leak-kinds: possible
   fun:_Znam
   fun:_ZN4llvm5APInt12initSlowCaseERKS0_
   fun:_ZN4llvm11ConstantInt3getERNS_11LLVMContextERKNS_5APIntE
   fun:_ZN4llvm11ConstantInt3getEPNS_11IntegerTypeEmb
   fun:_ZN4llvm11ConstantInt3getEPNS_4TypeEmb
   fun:_ZN4llvm8Constant12getNullValueEPNS_4TypeE
   obj:*
   obj:*
   obj:*
   obj:*
   obj:*
   obj:*
}
{
   <insert_a_suppression_name_here>
   Memcheck:Leak
   match-leak-kinds: possible
   fun:_Znam
   fun:_ZN4llvm5APInt14AssignSlowCaseERKS0_
   fun:_ZN4llvm11ConstantInt3getERNS_11LLVMContextERKNS_5APIntE
   fun:_ZN4llvm27ConstantFoldCastInstructionEjPNS_8ConstantEPNS_4TypeE
   obj:/usr/lib/libLLVM-3.9.so
   fun:_ZN4llvm15ScalarEvolution17getZeroExtendExprEPKNS_4SCEVEPNS_4TypeE
   fun:_ZN4llvm15ScalarEvolution17getZeroExtendExprEPKNS_4SCEVEPNS_4TypeE
   fun:_ZN4llvm12SCEVExpander25getAddRecExprPHILiterallyEPKNS_14SCEVAddRecExprEPKNS_4LoopEPNS_4TypeES8_RS8_Rb
   fun:_ZN4llvm12SCEVExpander25expandAddRecExprLiterallyEPKNS_14SCEVAddRecExprE
   fun:_ZN4llvm12SCEVExpander6expandEPKNS_4SCEVE
   fun:_ZN4llvm12SCEVExpander13expandCodeForEPKNS_4SCEVEPNS_4TypeE
   obj:/usr/lib/libLLVM-3.9.so
}
{
   <insert_a_suppression_name_here>
   Memcheck:Leak
   match-leak-kinds: possible
   fun:_Znam
   fun:_ZN4llvm5APInt12initSlowCaseERKS0_
   fun:_ZN4llvm11ConstantInt3getERNS_11LLVMContextERKNS_5APIntE
   fun:_ZN4llvm27ConstantFoldCastInstructionEjPNS_8ConstantEPNS_4TypeE
   obj:/usr/lib/libLLVM-3.9.so
   fun:_ZN4llvm15ScalarEvolution17getZeroExtendExprEPKNS_4SCEVEPNS_4TypeE
   fun:_ZN4llvm15ScalarEvolution17getZeroExtendExprEPKNS_4SCEVEPNS_4TypeE
   fun:_ZN4llvm12SCEVExpander25getAddRecExprPHILiterallyEPKNS_14SCEVAddRecExprEPKNS_4LoopEPNS_4TypeES8_RS8_Rb
   fun:_ZN4llvm12SCEVExpander25expandAddRecExprLiterallyEPKNS_14SCEVAddRecExprE
   fun:_ZN4llvm12SCEVExpander6expandEPKNS_4SCEVE
   fun:_ZN4llvm12SCEVExpander13expandCodeForEPKNS_4SCEVEPNS_4TypeE
   obj:/usr/lib/libLLVM-3.9.so
}
{
   <insert_a_suppression_name_here>
   Memcheck:Leak
   match-leak-kinds: possible
   fun:_Znam
   fun:_ZN4llvm5APInt14AssignSlowCaseERKS0_
   fun:_ZN4llvm11ConstantInt3getERNS_11LLVMContextERKNS_5APIntE
   fun:_ZN4llvm27ConstantFoldCastInstructionEjPNS_8ConstantEPNS_4TypeE
   obj:/usr/lib/libLLVM-3.9.so
   fun:_ZN4llvm15ScalarEvolution17getZeroExtendExprEPKNS_4SCEVEPNS_4TypeE
   fun:_ZN4llvm15ScalarEvolution19getRangeForAffineAREPKNS_4SCEVES3_S3_j
   fun:_ZN4llvm15ScalarEvolution8getRangeEPKNS_4SCEVENS0_13RangeSignHintE
   obj:/usr/lib/libLLVM-3.9.so
   obj:/usr/lib/libLLVM-3.9.so
   obj:/usr/lib/libLLVM-3.9.so
   fun:_ZN4llvm12SCEVExpander25getAddRecExprPHILiterallyEPKNS_14SCEVAddRecExprEPKNS_4LoopEPNS_4TypeES8_RS8_Rb
}
{
   <insert_a_suppression_name_here>
   Memcheck:Leak
   match-leak-kinds: possible
   fun:_Znam
   fun:_ZN4llvm5APInt12initSlowCaseERKS0_
   fun:_ZN4llvm11ConstantInt3getERNS_11LLVMContextERKNS_5APIntE
   fun:_ZN4llvm27ConstantFoldCastInstructionEjPNS_8ConstantEPNS_4TypeE
   obj:/usr/lib/libLLVM-3.9.so
   fun:_ZN4llvm15ScalarEvolution17getZeroExtendExprEPKNS_4SCEVEPNS_4TypeE
   fun:_ZN4llvm15ScalarEvolution19getRangeForAffineAREPKNS_4SCEVES3_S3_j
   fun:_ZN4llvm15ScalarEvolution8getRangeEPKNS_4SCEVENS0_13RangeSignHintE
   obj:/usr/lib/libLLVM-3.9.so
   obj:/usr/lib/libLLVM-3.9.so
   obj:/usr/lib/libLLVM-3.9.so
   fun:_ZN4llvm12SCEVExpander25getAddRecExprPHILiterallyEPKNS_14SCEVAddRecExprEPKNS_4LoopEPNS_4TypeES8_RS8_Rb
}
{
   <insert_a_suppression_name_here>
   Memcheck:Leak
   match-leak-kinds: possible
   fun:malloc
   fun:_ZNK4llvm11LLVMContext11getMDKindIDENS_9StringRefE
   fun:_ZN4llvm11LLVMContextC1Ev
   fun:LLVMContextCreate
   obj:*
   obj:*
   obj:*
   obj:*
   obj:*
   obj:/usr/lib/libGLX_mesa.so.0.0.0
   obj:/usr/lib/libGLX_mesa.so.0.0.0
   obj:/usr/lib/libGLX_mesa.so.0.0.0
}
{
   <insert_a_suppression_name_here>
   Memcheck:Leak
   match-leak-kinds: possible
   fun:malloc
   fun:_ZNK4llvm11LLVMContext11getMDKindIDENS_9StringRefE
   fun:_ZN4llvm11LLVMContextC1Ev
   fun:LLVMContextCreate
   obj:*
   obj:*
   obj:*
   obj:*
   obj:*
   obj:/usr/lib/libGLX_mesa.so.0.0.0
   obj:/usr/lib/libGLX_mesa.so.0.0.0
   obj:/usr/lib/libGLX_mesa.so.0.0.0
}
{
   <insert_a_suppression_name_here>
   Memcheck:Leak
   match-leak-kinds: possible
   fun:malloc
   fun:_ZNK4llvm11LLVMContext11getMDKindIDENS_9StringRefE
   fun:_ZN4llvm11LLVMContextC1Ev
   fun:LLVMContextCreate
   obj:*
   obj:*
   obj:*
   obj:*
   obj:*
   obj:/usr/lib/libGLX_mesa.so.0.0.0
   obj:/usr/lib/libGLX_mesa.so.0.0.0
   obj:/usr/lib/libGLX_mesa.so.0.0.0
}
{
   <insert_a_suppression_name_here>
   Memcheck:Leak
   match-leak-kinds: possible
   fun:malloc
   fun:_ZNK4llvm11LLVMContext11getMDKindIDENS_9StringRefE
   fun:_ZN4llvm11LLVMContextC1Ev
   fun:LLVMContextCreate
   obj:*
   obj:*
   obj:*
   obj:*
   obj:*
   obj:/usr/lib/libGLX_mesa.so.0.0.0
   obj:/usr/lib/libGLX_mesa.so.0.0.0
   obj:/usr/lib/libGLX_mesa.so.0.0.0
}
{
   <insert_a_suppression_name_here>
   Memcheck:Leak
   match-leak-kinds: possible
   fun:malloc
   fun:_ZNK4llvm11LLVMContext11getMDKindIDENS_9StringRefE
   fun:_ZN4llvm11LLVMContextC1Ev
   fun:LLVMContextCreate
   obj:*
   obj:*
   obj:*
   obj:*
   obj:*
   obj:/usr/lib/libGLX_mesa.so.0.0.0
   obj:/usr/lib/libGLX_mesa.so.0.0.0
   obj:/usr/lib/libGLX_mesa.so.0.0.0
}
{
   <insert_a_suppression_name_here>
   Memcheck:Leak
   match-leak-kinds: possible
   fun:malloc
   fun:_ZNK4llvm11LLVMContext11getMDKindIDENS_9StringRefE
   fun:_ZN4llvm11LLVMContextC1Ev
   fun:LLVMContextCreate
   obj:*
   obj:*
   obj:*
   obj:*
   obj:*
   obj:/usr/lib/libGLX_mesa.so.0.0.0
   obj:/usr/lib/libGLX_mesa.so.0.0.0
   obj:/usr/lib/libGLX_mesa.so.0.0.0
}
{
   <insert_a_suppression_name_here>
   Memcheck:Leak
   match-leak-kinds: possible
   fun:malloc
   fun:_ZN4llvm15LLVMContextImpl20getOrInsertBundleTagENS_9StringRefE
   fun:_ZN4llvm11LLVMContextC1Ev
   fun:LLVMContextCreate
   obj:*
   obj:*
   obj:*
   obj:*
   obj:*
   obj:/usr/lib/libGLX_mesa.so.0.0.0
   obj:/usr/lib/libGLX_mesa.so.0.0.0
   obj:/usr/lib/libGLX_mesa.so.0.0.0
}
{
   <insert_a_suppression_name_here>
   Memcheck:Leak
   match-leak-kinds: possible
   fun:malloc
   fun:_ZNK4llvm11LLVMContext11getMDKindIDENS_9StringRefE
   fun:_ZN4llvm11LLVMContextC1Ev
   fun:LLVMContextCreate
   obj:*
   obj:*
   obj:*
   obj:*
   obj:*
   obj:/usr/lib/libGLX_mesa.so.0.0.0
   obj:/usr/lib/libGLX_mesa.so.0.0.0
   obj:/usr/lib/libGLX_mesa.so.0.0.0
}
{
   <insert_a_suppression_name_here>
   Memcheck:Leak
   match-leak-kinds: possible
   fun:malloc
   fun:_ZNK4llvm11LLVMContext11getMDKindIDENS_9StringRefE
   fun:_ZN4llvm11LLVMContextC1Ev
   fun:LLVMContextCreate
   obj:*
   obj:*
   obj:*
   obj:*
   obj:*
   obj:/usr/lib/libGLX_mesa.so.0.0.0
   obj:/usr/lib/libGLX_mesa.so.0.0.0
   obj:/usr/lib/libGLX_mesa.so.0.0.0
}
{
   <insert_a_suppression_name_here>
   Memcheck:Leak
   match-leak-kinds: possible
   fun:malloc
   fun:_ZNK4llvm11LLVMContext11getMDKindIDENS_9StringRefE
   fun:_ZN4llvm11LLVMContextC1Ev
   fun:LLVMContextCreate
   obj:*
   obj:*
   obj:*
   obj:*
   obj:*
   obj:/usr/lib/libGLX_mesa.so.0.0.0
   obj:/usr/lib/libGLX_mesa.so.0.0.0
   obj:/usr/lib/libGLX_mesa.so.0.0.0
}
{
   <insert_a_suppression_name_here>
   Memcheck:Leak
   match-leak-kinds: possible
   fun:malloc
   obj:*
   obj:*
   obj:*
   obj:*
   obj:*
   obj:*
   obj:*
   obj:*
   obj:*
   obj:*
   obj:/usr/lib/libGLX_mesa.so.0.0.0
}
{
   <insert_a_suppression_name_here>
   Memcheck:Leak
   match-leak-kinds: possible
   fun:malloc
   obj:*
   obj:*
   obj:*
   obj:*
   obj:*
   obj:*
   obj:*
   obj:*
   obj:*
   obj:*
   obj:/usr/lib/libGLX_mesa.so.0.0.0
}
{
   <insert_a_suppression_name_here>
   Memcheck:Leak
   match-leak-kinds: possible
   fun:calloc
   obj:*
   obj:*
   obj:*
   obj:*
   obj:*
   obj:*
   obj:*
   obj:*
   obj:*
   obj:*
   obj:/usr/lib/libGLX_mesa.so.0.0.0
}
{
   <insert_a_suppression_name_here>
   Memcheck:Leak
   match-leak-kinds: possible
   fun:calloc
   obj:*
   obj:*
   obj:*
   obj:*
   obj:*
   obj:*
   obj:*
   obj:*
   obj:*
   obj:*
   obj:/usr/lib/libGLX_mesa.so.0.0.0
}
{
   <insert_a_suppression_name_here>
   Memcheck:Leak
   match-leak-kinds: possible
   fun:malloc
   obj:*
   obj:*
   obj:*
   obj:*
   obj:*
   obj:*
   obj:*
   obj:*
   obj:*
   obj:*
   obj:*
}
{
   <insert_a_suppression_name_here>
   Memcheck:Leak
   match-leak-kinds: possible
   fun:malloc
   obj:*
   obj:*
   obj:*
   obj:*
   obj:*
   obj:*
   obj:*
   obj:*
   obj:*
   obj:*
   obj:*
}
{
   <insert_a_suppression_name_here>
   Memcheck:Leak
   match-leak-kinds: possible
   fun:malloc
   fun:_ZN4llvm22ConstantDataSequential7getImplENS_9StringRefEPNS_4TypeE
   fun:_ZN4llvm18ConstantDataVector3getERNS_11LLVMContextENS_8ArrayRefIjEE
   fun:_ZN4llvm14ConstantVector7getImplENS_8ArrayRefIPNS_8ConstantEEE
   fun:_ZN4llvm14ConstantVector3getENS_8ArrayRefIPNS_8ConstantEEE
   fun:LLVMConstVector
   obj:*
   obj:*
   obj:*
   obj:*
   obj:*
   obj:*
}
{
   <insert_a_suppression_name_here>
   Memcheck:Leak
   match-leak-kinds: possible
   fun:malloc
   fun:_ZN4llvm22ConstantDataSequential7getImplENS_9StringRefEPNS_4TypeE
   fun:_ZN4llvm18ConstantDataVector3getERNS_11LLVMContextENS_8ArrayRefIjEE
   fun:_ZN4llvm14ConstantVector7getImplENS_8ArrayRefIPNS_8ConstantEEE
   fun:_ZN4llvm14ConstantVector3getENS_8ArrayRefIPNS_8ConstantEEE
   fun:LLVMConstVector
   obj:*
   obj:*
   obj:*
   obj:*
   obj:*
   obj:*
}
{
   <insert_a_suppression_name_here>
   Memcheck:Leak
   match-leak-kinds: possible
   fun:malloc
   fun:_ZN4llvm22ConstantDataSequential7getImplENS_9StringRefEPNS_4TypeE
   fun:_ZN4llvm18ConstantDataVector3getERNS_11LLVMContextENS_8ArrayRefIjEE
   fun:_ZN4llvm14ConstantVector7getImplENS_8ArrayRefIPNS_8ConstantEEE
   fun:_ZN4llvm14ConstantVector3getENS_8ArrayRefIPNS_8ConstantEEE
   fun:LLVMConstVector
   obj:*
   obj:*
   obj:*
   obj:*
   obj:*
   obj:*
}
{
   <insert_a_suppression_name_here>
   Memcheck:Leak
   match-leak-kinds: possible
   fun:malloc
   fun:_ZN4llvm22ConstantDataSequential7getImplENS_9StringRefEPNS_4TypeE
   fun:_ZN4llvm18ConstantDataVector3getERNS_11LLVMContextENS_8ArrayRefIjEE
   fun:_ZN4llvm14ConstantVector7getImplENS_8ArrayRefIPNS_8ConstantEEE
   fun:_ZN4llvm14ConstantVector3getENS_8ArrayRefIPNS_8ConstantEEE
   fun:LLVMConstVector
   obj:*
   obj:*
   obj:*
   obj:*
   obj:*
   obj:*
}
{
   <insert_a_suppression_name_here>
   Memcheck:Leak
   match-leak-kinds: possible
   fun:malloc
   obj:*
   obj:*
   obj:*
   obj:*
   obj:*
   obj:*
   obj:*
   obj:/usr/lib/libGLX_mesa.so.0.0.0
   obj:/usr/lib/libGLX_mesa.so.0.0.0
   obj:/usr/lib/libGLX_mesa.so.0.0.0
   fun:glXCreateContext
}
{
   <insert_a_suppression_name_here>
   Memcheck:Leak
   match-leak-kinds: possible
   fun:malloc
   obj:*
   obj:*
   obj:*
   obj:*
   obj:*
   obj:*
   obj:*
   obj:/usr/lib/libGLX_mesa.so.0.0.0
   obj:/usr/lib/libGLX_mesa.so.0.0.0
   obj:/usr/lib/libGLX_mesa.so.0.0.0
   fun:glXCreateContext
}
{
   <insert_a_suppression_name_here>
   Memcheck:Leak
   match-leak-kinds: possible
   fun:malloc
   obj:*
   obj:*
   obj:*
   obj:*
   obj:*
   obj:*
   obj:*
   obj:/usr/lib/libGLX_mesa.so.0.0.0
   obj:/usr/lib/libGLX_mesa.so.0.0.0
   obj:/usr/lib/libGLX_mesa.so.0.0.0
   fun:glXCreateContext
}
{
   <insert_a_suppression_name_here>
   Memcheck:Leak
   match-leak-kinds: possible
   fun:malloc
   obj:*
   obj:*
   obj:*
   obj:*
   obj:*
   obj:*
   obj:*
   obj:/usr/lib/libGLX_mesa.so.0.0.0
   obj:/usr/lib/libGLX_mesa.so.0.0.0
   obj:/usr/lib/libGLX_mesa.so.0.0.0
   fun:glXCreateContext
}
{
   <insert_a_suppression_name_here>
   Memcheck:Leak
   match-leak-kinds: possible
   fun:malloc
   fun:_ZNK4llvm11LLVMContext11getMDKindIDENS_9StringRefE
   fun:_ZN4llvm11LLVMContextC1Ev
   fun:LLVMContextCreate
   obj:*
   obj:*
   obj:*
   obj:*
   obj:*
   obj:/usr/lib/libGLX_mesa.so.0.0.0
   obj:/usr/lib/libGLX_mesa.so.0.0.0
   obj:/usr/lib/libGLX_mesa.so.0.0.0
}
{
   <insert_a_suppression_name_here>
   Memcheck:Leak
   match-leak-kinds: possible
   fun:malloc
   obj:*
   obj:*
   obj:*
   obj:*
   obj:*
   obj:*
   obj:*
   obj:*
   obj:*
   obj:*
   obj:/usr/lib/libGLX_mesa.so.0.0.0
}
{
   <insert_a_suppression_name_here>
   Memcheck:Leak
   match-leak-kinds: possible
   fun:malloc
   obj:*
   obj:*
   obj:*
   obj:*
   obj:*
   obj:*
   obj:*
   obj:*
   obj:*
   obj:*
   obj:/usr/lib/libGLX_mesa.so.0.0.0
}
{
   <insert_a_suppression_name_here>
   Memcheck:Leak
   match-leak-kinds: possible
   fun:malloc
   obj:*
   obj:*
   obj:*
   obj:*
   obj:*
   obj:*
   obj:*
   obj:*
   obj:*
   obj:*
   obj:*
}
{
   <insert_a_suppression_name_here>
   Memcheck:Leak
   match-leak-kinds: possible
   fun:calloc
   obj:*
   obj:*
   obj:*
   obj:*
   obj:*
   obj:*
   obj:*
   obj:*
   obj:*
   obj:*
   obj:/usr/lib/libGLX_mesa.so.0.0.0
}
{
   <insert_a_suppression_name_here>
   Memcheck:Leak
   match-leak-kinds: possible
   fun:malloc
   obj:*
   obj:*
   obj:*
   obj:*
   obj:*
   obj:*
   obj:*
   obj:*
   obj:*
   obj:*
   obj:*
}
{
   <insert_a_suppression_name_here>
   Memcheck:Leak
   match-leak-kinds: possible
   fun:malloc
   obj:*
   obj:*
   obj:*
   obj:*
   obj:*
   obj:*
   obj:*
   obj:*
   obj:*
   obj:*
   obj:*
}
{
   <insert_a_suppression_name_here>
   Memcheck:Leak
   match-leak-kinds: possible
   fun:calloc
   obj:*
   obj:*
   obj:*
   obj:*
   obj:*
   obj:*
   obj:*
   obj:*
   obj:*
   obj:*
   obj:/usr/lib/libGLX_mesa.so.0.0.0
}
{
   <insert_a_suppression_name_here>
   Memcheck:Leak
   match-leak-kinds: possible
   fun:malloc
   obj:*
   obj:*
   obj:*
   obj:*
   obj:*
   obj:*
   obj:*
   obj:*
   obj:*
   obj:*
   obj:*
}
{
   <insert_a_suppression_name_here>
   Memcheck:Leak
   match-leak-kinds: possible
   fun:malloc
   obj:*
   obj:*
   obj:*
   obj:*
   obj:*
   obj:*
   obj:*
   obj:*
   obj:*
   obj:*
   obj:*
}
{
   <insert_a_suppression_name_here>
   Memcheck:Leak
   match-leak-kinds: possible
   fun:malloc
   obj:*
   obj:*
   obj:*
   obj:*
   obj:*
   obj:*
   obj:*
   obj:*
   obj:*
   obj:*
   obj:/usr/lib/libGLX_mesa.so.0.0.0
}
{
   <insert_a_suppression_name_here>
   Memcheck:Leak
   match-leak-kinds: possible
   fun:malloc
   obj:*
   obj:*
   obj:*
   obj:*
   obj:*
   obj:*
   obj:*
   obj:*
   obj:*
   obj:*
   obj:/usr/lib/libGLX_mesa.so.0.0.0
}
{
   <insert_a_suppression_name_here>
   Memcheck:Leak
   match-leak-kinds: possible
   fun:malloc
   obj:*
   obj:*
   obj:*
   obj:*
   obj:*
   obj:*
   obj:*
   obj:*
   obj:*
   obj:/usr/lib/libGLX_mesa.so.0.0.0
   obj:/usr/lib/libGLX_mesa.so.0.0.0
}
{
   <insert_a_suppression_name_here>
   Memcheck:Leak
   match-leak-kinds: possible
   fun:malloc
   obj:*
   obj:*
   obj:*
   obj:*
   obj:*
   obj:*
   obj:*
   obj:/usr/lib/libGLX_mesa.so.0.0.0
   obj:/usr/lib/libGLX_mesa.so.0.0.0
   obj:/usr/lib/libGLX_mesa.so.0.0.0
   fun:glXCreateContext
}
{
   <insert_a_suppression_name_here>
   Memcheck:Leak
   match-leak-kinds: possible
   fun:malloc
   obj:*
   obj:*
   obj:*
   obj:*
   obj:*
   obj:*
   obj:*
   obj:/usr/lib/libGLX_mesa.so.0.0.0
   obj:/usr/lib/libGLX_mesa.so.0.0.0
   obj:/usr/lib/libGLX_mesa.so.0.0.0
   fun:glXCreateContext
}
{
   <insert_a_suppression_name_here>
   Memcheck:Leak
   match-leak-kinds: possible
   fun:malloc
   obj:*
   obj:*
   obj:*
   obj:*
   obj:*
   obj:*
   obj:*
   obj:/usr/lib/libGLX_mesa.so.0.0.0
   obj:/usr/lib/libGLX_mesa.so.0.0.0
   obj:/usr/lib/libGLX_mesa.so.0.0.0
   fun:glXCreateContext
}
{
   <insert_a_suppression_name_here>
   Memcheck:Leak
   match-leak-kinds: possible
   fun:malloc
   obj:*
   obj:*
   obj:*
   obj:*
   obj:*
   obj:*
   obj:*
   obj:/usr/lib/libGLX_mesa.so.0.0.0
   obj:/usr/lib/libGLX_mesa.so.0.0.0
   obj:/usr/lib/libGLX_mesa.so.0.0.0
   fun:glXCreateContext
}
{
   <insert_a_suppression_name_here>
   Memcheck:Leak
   match-leak-kinds: possible
   fun:malloc
   obj:*
   obj:*
   obj:*
   obj:*
   obj:*
   obj:*
   obj:*
   obj:/usr/lib/libGLX_mesa.so.0.0.0
   obj:/usr/lib/libGLX_mesa.so.0.0.0
   obj:/usr/lib/libGLX_mesa.so.0.0.0
   fun:glXCreateContext
}
{
   <insert_a_suppression_name_here>
   Memcheck:Leak
   match-leak-kinds: possible
   fun:malloc
   obj:*
   obj:*
   obj:*
   obj:*
   obj:*
   obj:*
   obj:*
   obj:/usr/lib/libGLX_mesa.so.0.0.0
   obj:/usr/lib/libGLX_mesa.so.0.0.0
   obj:/usr/lib/libGLX_mesa.so.0.0.0
   fun:glXCreateContext
}
{
   <insert_a_suppression_name_here>
   Memcheck:Leak
   match-leak-kinds: possible
   fun:malloc
   obj:*
   obj:*
   obj:*
   obj:*
   obj:*
   obj:*
   obj:*
   obj:*
   obj:/usr/lib/libGLX_mesa.so.0.0.0
   obj:/usr/lib/libGLX_mesa.so.0.0.0
   obj:/usr/lib/libGLX_mesa.so.0.0.0
}
{
   <insert_a_suppression_name_here>
   Memcheck:Leak
   match-leak-kinds: possible
   fun:_Znwm
   fun:_ZN4llvm16AttributeSetNode3getERNS_11LLVMContextENS_8ArrayRefINS_9AttributeEEE
   fun:_ZN4llvm12AttributeSet3getERNS_11LLVMContextENS_8ArrayRefISt4pairIjNS_9AttributeEEEE
   fun:_ZN4llvm12AttributeSet3getERNS_11LLVMContextEjRKNS_11AttrBuilderE
   fun:LLVMAddAttribute
   obj:*
   obj:*
   obj:*
   obj:*
   obj:*
   obj:*
   obj:*
}
{
   <insert_a_suppression_name_here>
   Memcheck:Leak
   match-leak-kinds: possible
   fun:_Znwm
   fun:_ZN4llvm4UsernwEmj
   fun:_ZN4llvm10UndefValue3getEPNS_4TypeE
   obj:*
   obj:*
   obj:*
   obj:*
   obj:*
   obj:*
   obj:*
   obj:*
   obj:*
}
{
   <insert_a_suppression_name_here>
   Memcheck:Leak
   match-leak-kinds: possible
   fun:_Znwm
   fun:_ZN4llvm4UsernwEmj
   fun:_ZN4llvm21ConstantAggregateZero3getEPNS_4TypeE
   fun:_ZN4llvm8Constant12getNullValueEPNS_4TypeE
   obj:*
   obj:*
   obj:*
   obj:*
   obj:*
   obj:*
   obj:*
   obj:*
}
{
   <insert_a_suppression_name_here>
   Memcheck:Leak
   match-leak-kinds: possible
   fun:_Znwm
   fun:_ZN4llvm4UsernwEmj
   fun:_ZN4llvm10UndefValue3getEPNS_4TypeE
   fun:_ZN4llvm12ConstantExpr17getExtractElementEPNS_8ConstantES2_PNS_4TypeE
   fun:_ZN4llvm36ConstantFoldInsertElementInstructionEPNS_8ConstantES1_S1_
   fun:_ZN4llvm12ConstantExpr16getInsertElementEPNS_8ConstantES2_S2_PNS_4TypeE
   fun:LLVMBuildInsertElement
   obj:*
   obj:*
   obj:*
   obj:*
   obj:*
}
{
   <insert_a_suppression_name_here>
   Memcheck:Leak
   match-leak-kinds: possible
   fun:_Znwm
   fun:_ZN4llvm4UsernwEmj
   fun:_ZN4llvm21ConstantAggregateZero3getEPNS_4TypeE
   fun:_ZN4llvm8Constant12getNullValueEPNS_4TypeE
   obj:*
   obj:*
   obj:*
   obj:*
   obj:*
   obj:*
   obj:*
   obj:*
}
{
   <insert_a_suppression_name_here>
   Memcheck:Leak
   match-leak-kinds: possible
   fun:_Znwm
   fun:_ZN4llvm16AttributeSetNode3getERNS_11LLVMContextENS_8ArrayRefINS_9AttributeEEE
   fun:_ZN4llvm12AttributeSet3getERNS_11LLVMContextENS_8ArrayRefISt4pairIjNS_9AttributeEEEE
   fun:_ZN4llvm12AttributeSet3getERNS_11LLVMContextEjRKNS_11AttrBuilderE
   fun:LLVMAddFunctionAttr
   obj:*
   obj:*
   obj:*
   obj:*
   obj:*
   obj:*
   obj:*
}
{
   <insert_a_suppression_name_here>
   Memcheck:Leak
   match-leak-kinds: possible
   fun:_Znwm
   fun:_ZN4llvm4UsernwEmj
   fun:_ZN4llvm10UndefValue3getEPNS_4TypeE
   fun:_ZN4llvm12ConstantExpr17getExtractElementEPNS_8ConstantES2_PNS_4TypeE
   fun:_ZN4llvm36ConstantFoldInsertElementInstructionEPNS_8ConstantES1_S1_
   fun:_ZN4llvm12ConstantExpr16getInsertElementEPNS_8ConstantES2_S2_PNS_4TypeE
   fun:LLVMBuildInsertElement
   obj:*
   obj:*
   obj:*
   obj:*
   obj:*
}
{
   <insert_a_suppression_name_here>
   Memcheck:Leak
   match-leak-kinds: possible
   fun:_Znwm
   fun:_ZN4llvm4UsernwEmj
   fun:_ZN4llvm10UndefValue3getEPNS_4TypeE
   obj:*
   obj:*
   obj:*
   obj:*
   obj:*
   obj:*
   obj:*
   obj:*
   obj:*
}
{
   <insert_a_suppression_name_here>
   Memcheck:Leak
   match-leak-kinds: possible
   fun:_Znwm
   fun:_ZN4llvm4UsernwEmj
   fun:_ZN4llvm21ConstantAggregateZero3getEPNS_4TypeE
   fun:_ZN4llvm8Constant12getNullValueEPNS_4TypeE
   obj:*
   obj:*
   obj:*
   obj:*
   obj:*
   obj:*
   obj:*
   obj:*
}
{
   <insert_a_suppression_name_here>
   Memcheck:Leak
   match-leak-kinds: possible
   fun:_Znwm
   fun:_ZN4llvm4UsernwEmj
   fun:_ZN4llvm10UndefValue3getEPNS_4TypeE
   obj:*
   obj:*
   obj:*
   obj:*
   obj:*
   obj:*
   obj:*
   obj:*
   obj:*
}
{
   <insert_a_suppression_name_here>
   Memcheck:Leak
   match-leak-kinds: possible
   fun:_Znwm
   fun:_ZN4llvm4UsernwEmj
   fun:_ZN4llvm21ConstantAggregateZero3getEPNS_4TypeE
   fun:_ZN4llvm8Constant12getNullValueEPNS_4TypeE
   obj:*
   obj:*
   obj:*
   obj:*
   obj:*
   obj:*
   obj:*
   obj:*
}
{
   <insert_a_suppression_name_here>
   Memcheck:Leak
   match-leak-kinds: possible
   fun:_Znwm
   fun:_ZN4llvm4UsernwEmj
   fun:_ZN4llvm10UndefValue3getEPNS_4TypeE
   obj:*
   obj:*
   obj:*
   obj:*
   obj:*
   obj:*
   obj:*
   obj:*
   obj:*
}
{
   <insert_a_suppression_name_here>
   Memcheck:Leak
   match-leak-kinds: possible
   fun:_Znwm
   fun:_ZN4llvm4UsernwEmj
   fun:_ZN4llvm21ConstantAggregateZero3getEPNS_4TypeE
   fun:_ZN4llvm8Constant12getNullValueEPNS_4TypeE
   obj:*
   obj:*
   obj:*
   obj:*
   obj:*
   obj:*
   obj:*
   obj:*
}
{
   <insert_a_suppression_name_here>
   Memcheck:Leak
   match-leak-kinds: possible
   fun:_Znwm
   fun:_ZN4llvm4UsernwEmj
   fun:_ZN4llvm10UndefValue3getEPNS_4TypeE
   obj:*
   obj:*
   obj:*
   obj:*
   obj:*
   obj:*
   obj:*
   obj:*
   obj:*
}
{
   <insert_a_suppression_name_here>
   Memcheck:Leak
   match-leak-kinds: possible
   fun:_Znwm
   fun:_ZN4llvm4UsernwEmj
   fun:_ZN4llvm10UndefValue3getEPNS_4TypeE
   obj:*
   obj:*
   obj:*
   obj:*
   obj:*
   obj:*
   obj:*
   obj:*
   obj:*
}
{
   <insert_a_suppression_name_here>
   Memcheck:Leak
   match-leak-kinds: possible
   fun:_Znwm
   fun:_ZN4llvm4UsernwEmj
   fun:_ZN4llvm21ConstantAggregateZero3getEPNS_4TypeE
   fun:_ZN4llvm8Constant12getNullValueEPNS_4TypeE
   obj:*
   obj:*
   obj:*
   obj:*
   obj:*
   obj:*
   obj:*
   obj:*
}
{
   <insert_a_suppression_name_here>
   Memcheck:Leak
   match-leak-kinds: possible
   fun:_Znwm
   fun:_ZN4llvm16AttributeSetNode3getERNS_11LLVMContextENS_8ArrayRefINS_9AttributeEEE
   fun:_ZN4llvm12AttributeSet3getERNS_11LLVMContextENS_8ArrayRefISt4pairIjNS_9AttributeEEEE
   fun:_ZN4llvm12AttributeSet3getERNS_11LLVMContextEjRKNS_11AttrBuilderE
   fun:LLVMAddTargetDependentFunctionAttr
   obj:*
   obj:*
   obj:*
   obj:*
   obj:*
   obj:*
   obj:*
}
{
   <insert_a_suppression_name_here>
   Memcheck:Leak
   match-leak-kinds: possible
   fun:_Znwm
   fun:_ZN4llvm16AttributeSetNode3getERNS_11LLVMContextENS_8ArrayRefINS_9AttributeEEE
   fun:_ZN4llvm12AttributeSet3getERNS_11LLVMContextENS_8ArrayRefISt4pairIjNS_9AttributeEEEE
   fun:_ZN4llvm12AttributeSet3getERNS_11LLVMContextEjRKNS_11AttrBuilderE
   fun:LLVMAddTargetDependentFunctionAttr
   obj:*
   obj:*
   obj:*
   obj:*
   obj:*
   obj:*
   obj:*
}
{
   <insert_a_suppression_name_here>
   Memcheck:Leak
   match-leak-kinds: possible
   fun:_Znwm
   fun:_ZN4llvm4UsernwEmj
   fun:_ZN4llvm10UndefValue3getEPNS_4TypeE
   fun:_ZN4llvm4SROA22deleteDeadInstructionsERNS_15SmallPtrSetImplIPNS_10AllocaInstEEE
   fun:_ZN4llvm4SROA7runImplERNS_8FunctionERNS_13DominatorTreeERNS_15AssumptionCacheE
   obj:/usr/lib/libLLVM-3.9.so
   fun:_ZN4llvm13FPPassManager13runOnFunctionERNS_8FunctionE
   fun:_ZN4llvm6legacy23FunctionPassManagerImpl3runERNS_8FunctionE
   fun:_ZN4llvm6legacy19FunctionPassManager3runERNS_8FunctionE
   fun:LLVMRunFunctionPassManager
   obj:*
   obj:*
}
{
   <insert_a_suppression_name_here>
   Memcheck:Leak
   match-leak-kinds: possible
   fun:_Znwm
   fun:_ZN4llvm4UsernwEmj
   fun:_ZN4llvm19ConstantPointerNull3getEPNS_11PointerTypeE
   obj:*
   obj:*
   obj:*
   obj:*
   obj:*
   obj:*
   obj:*
   obj:*
   obj:*
}
{
   <insert_a_suppression_name_here>
   Memcheck:Leak
   match-leak-kinds: possible
   fun:_Znwm
   fun:_ZN4llvm4UsernwEmj
   fun:_ZN4llvm21ConstantAggregateZero3getEPNS_4TypeE
   fun:_ZN4llvm14ConstantVector7getImplENS_8ArrayRefIPNS_8ConstantEEE
   fun:_ZN4llvm14ConstantVector3getENS_8ArrayRefIPNS_8ConstantEEE
   fun:LLVMConstVector
   obj:*
   obj:*
   obj:*
   obj:*
   obj:*
   obj:*
}
{
   <insert_a_suppression_name_here>
   Memcheck:Leak
   match-leak-kinds: possible
   fun:_Znwm
   fun:_ZN4llvm4UsernwEmj
   fun:_ZN4llvm10UndefValue3getEPNS_4TypeE
   obj:*
   obj:*
   obj:*
   obj:*
   obj:*
   obj:*
   obj:*
   obj:*
   obj:*
}
{
   <insert_a_suppression_name_here>
   Memcheck:Leak
   match-leak-kinds: possible
   fun:_Znwm
   fun:_ZN4llvm4UsernwEmj
   fun:_ZN4llvm10UndefValue3getEPNS_4TypeE
   fun:_ZN4llvm4SROA22deleteDeadInstructionsERNS_15SmallPtrSetImplIPNS_10AllocaInstEEE
   fun:_ZN4llvm4SROA7runImplERNS_8FunctionERNS_13DominatorTreeERNS_15AssumptionCacheE
   obj:/usr/lib/libLLVM-3.9.so
   fun:_ZN4llvm13FPPassManager13runOnFunctionERNS_8FunctionE
   fun:_ZN4llvm6legacy23FunctionPassManagerImpl3runERNS_8FunctionE
   fun:_ZN4llvm6legacy19FunctionPassManager3runERNS_8FunctionE
   fun:LLVMRunFunctionPassManager
   obj:*
   obj:*
}
{
   <insert_a_suppression_name_here>
   Memcheck:Leak
   match-leak-kinds: possible
   fun:_Znwm
   fun:_ZN4llvm4UsernwEmj
   fun:_ZN4llvm21ConstantAggregateZero3getEPNS_4TypeE
   fun:_ZN4llvm14ConstantVector7getImplENS_8ArrayRefIPNS_8ConstantEEE
   fun:_ZN4llvm14ConstantVector3getENS_8ArrayRefIPNS_8ConstantEEE
   fun:_ZN4llvm30ConstantFoldCompareInstructionEtPNS_8ConstantES1_
   fun:_ZN4llvm12ConstantExpr7getFCmpEtPNS_8ConstantES2_b
   obj:/usr/lib/libLLVM-3.9.so
   obj:/usr/lib/libLLVM-3.9.so
   fun:_ZN4llvm16SimplifyFCmpInstEjPNS_5ValueES1_NS_13FastMathFlagsERKNS_10DataLayoutEPKNS_17TargetLibraryInfoEPKNS_13DominatorTreeEPNS_15AssumptionCacheEPKNS_11InstructionE
   obj:/usr/lib/libLLVM-3.9.so
   obj:/usr/lib/libLLVM-3.9.so
}
{
   <insert_a_suppression_name_here>
   Memcheck:Leak
   match-leak-kinds: possible
   fun:malloc
   fun:_ZN4llvm22ConstantDataSequential7getImplENS_9StringRefEPNS_4TypeE
   fun:_ZN4llvm18ConstantDataVector5getFPERNS_11LLVMContextENS_8ArrayRefIjEE
   fun:_ZN4llvm14ConstantVector7getImplENS_8ArrayRefIPNS_8ConstantEEE
   fun:_ZN4llvm14ConstantVector3getENS_8ArrayRefIPNS_8ConstantEEE
   fun:LLVMConstVector
   obj:*
   obj:*
   obj:*
   obj:*
   obj:*
   obj:*
}
{
   <insert_a_suppression_name_here>
   Memcheck:Leak
   match-leak-kinds: possible
   fun:malloc
   fun:_ZN4llvm22ConstantDataSequential7getImplENS_9StringRefEPNS_4TypeE
   fun:_ZN4llvm18ConstantDataVector3getERNS_11LLVMContextENS_8ArrayRefIjEE
   fun:_ZN4llvm14ConstantVector7getImplENS_8ArrayRefIPNS_8ConstantEEE
   fun:_ZN4llvm14ConstantVector3getENS_8ArrayRefIPNS_8ConstantEEE
   fun:LLVMConstVector
   obj:*
   obj:*
   obj:*
   obj:*
   obj:*
   obj:*
}
{
   <insert_a_suppression_name_here>
   Memcheck:Leak
   match-leak-kinds: possible
   fun:malloc
   fun:_ZN4llvm22ConstantDataSequential7getImplENS_9StringRefEPNS_4TypeE
   fun:_ZN4llvm18ConstantDataVector3getERNS_11LLVMContextENS_8ArrayRefIjEE
   fun:_ZN4llvm18ConstantDataVector8getSplatEjPNS_8ConstantE
   fun:_ZN4llvm14ConstantVector8getSplatEjPNS_8ConstantE
   fun:_ZN4llvm8Constant15getAllOnesValueEPNS_4TypeE
   obj:*
   obj:*
   obj:*
   obj:*
   obj:*
   obj:*
}
{
   <insert_a_suppression_name_here>
   Memcheck:Leak
   match-leak-kinds: possible
   fun:malloc
   fun:_ZN4llvm22ConstantDataSequential7getImplENS_9StringRefEPNS_4TypeE
   fun:_ZN4llvm18ConstantDataVector5getFPERNS_11LLVMContextENS_8ArrayRefIjEE
   fun:_ZN4llvm14ConstantVector7getImplENS_8ArrayRefIPNS_8ConstantEEE
   fun:_ZN4llvm14ConstantVector3getENS_8ArrayRefIPNS_8ConstantEEE
   fun:LLVMConstVector
   obj:*
   obj:*
   obj:*
   obj:*
   obj:*
   obj:*
}
{
   <insert_a_suppression_name_here>
   Memcheck:Leak
   match-leak-kinds: possible
   fun:malloc
   fun:_ZN4llvm22ConstantDataSequential7getImplENS_9StringRefEPNS_4TypeE
   fun:_ZN4llvm18ConstantDataVector3getERNS_11LLVMContextENS_8ArrayRefIjEE
   fun:_ZN4llvm14ConstantVector7getImplENS_8ArrayRefIPNS_8ConstantEEE
   fun:_ZN4llvm14ConstantVector3getENS_8ArrayRefIPNS_8ConstantEEE
   fun:LLVMConstVector
   obj:*
   obj:*
   obj:*
   obj:*
   obj:*
   obj:*
}
{
   <insert_a_suppression_name_here>
   Memcheck:Leak
   match-leak-kinds: possible
   fun:malloc
   fun:_ZN4llvm22ConstantDataSequential7getImplENS_9StringRefEPNS_4TypeE
   fun:_ZN4llvm18ConstantDataVector3getERNS_11LLVMContextENS_8ArrayRefIjEE
   fun:_ZN4llvm14ConstantVector7getImplENS_8ArrayRefIPNS_8ConstantEEE
   fun:_ZN4llvm14ConstantVector3getENS_8ArrayRefIPNS_8ConstantEEE
   fun:LLVMConstVector
   obj:*
   obj:*
   obj:*
   obj:*
   obj:*
   obj:*
}
{
   <insert_a_suppression_name_here>
   Memcheck:Leak
   match-leak-kinds: possible
   fun:malloc
   fun:_ZN4llvm22ConstantDataSequential7getImplENS_9StringRefEPNS_4TypeE
   fun:_ZN4llvm18ConstantDataVector3getERNS_11LLVMContextENS_8ArrayRefIjEE
   fun:_ZN4llvm14ConstantVector7getImplENS_8ArrayRefIPNS_8ConstantEEE
   fun:_ZN4llvm14ConstantVector3getENS_8ArrayRefIPNS_8ConstantEEE
   fun:LLVMConstVector
   obj:*
   obj:*
   obj:*
   obj:*
   obj:*
   obj:*
}
{
   <insert_a_suppression_name_here>
   Memcheck:Leak
   match-leak-kinds: possible
   fun:malloc
   fun:_ZN4llvm22ConstantDataSequential7getImplENS_9StringRefEPNS_4TypeE
   fun:_ZN4llvm18ConstantDataVector3getERNS_11LLVMContextENS_8ArrayRefIjEE
   fun:_ZN4llvm14ConstantVector7getImplENS_8ArrayRefIPNS_8ConstantEEE
   fun:_ZN4llvm14ConstantVector3getENS_8ArrayRefIPNS_8ConstantEEE
   fun:LLVMConstVector
   obj:*
   obj:*
   obj:*
   obj:*
   obj:*
   obj:*
}
{
   <insert_a_suppression_name_here>
   Memcheck:Leak
   match-leak-kinds: possible
   fun:malloc
   fun:_ZN4llvm22ConstantDataSequential7getImplENS_9StringRefEPNS_4TypeE
   fun:_ZN4llvm18ConstantDataVector3getERNS_11LLVMContextENS_8ArrayRefIjEE
   fun:_ZN4llvm14ConstantVector7getImplENS_8ArrayRefIPNS_8ConstantEEE
   fun:_ZN4llvm14ConstantVector3getENS_8ArrayRefIPNS_8ConstantEEE
   fun:LLVMConstVector
   obj:*
   obj:*
   obj:*
   obj:*
   obj:*
   obj:*
}
{
   <insert_a_suppression_name_here>
   Memcheck:Leak
   match-leak-kinds: possible
   fun:malloc
   fun:_ZN4llvm22ConstantDataSequential7getImplENS_9StringRefEPNS_4TypeE
   fun:_ZN4llvm18ConstantDataVector5getFPERNS_11LLVMContextENS_8ArrayRefIjEE
   fun:_ZN4llvm14ConstantVector7getImplENS_8ArrayRefIPNS_8ConstantEEE
   fun:_ZN4llvm14ConstantVector3getENS_8ArrayRefIPNS_8ConstantEEE
   fun:LLVMConstVector
   obj:*
   obj:*
   obj:*
   obj:*
   obj:*
   obj:*
}
{
   <insert_a_suppression_name_here>
   Memcheck:Leak
   match-leak-kinds: possible
   fun:malloc
   fun:_ZN4llvm22ConstantDataSequential7getImplENS_9StringRefEPNS_4TypeE
   fun:_ZN4llvm18ConstantDataVector5getFPERNS_11LLVMContextENS_8ArrayRefIjEE
   fun:_ZN4llvm14ConstantVector7getImplENS_8ArrayRefIPNS_8ConstantEEE
   fun:_ZN4llvm14ConstantVector3getENS_8ArrayRefIPNS_8ConstantEEE
   fun:LLVMConstVector
   obj:*
   obj:*
   obj:*
   obj:*
   obj:*
   obj:*
}
{
   <insert_a_suppression_name_here>
   Memcheck:Leak
   match-leak-kinds: possible
   fun:malloc
   fun:_ZN4llvm22ConstantDataSequential7getImplENS_9StringRefEPNS_4TypeE
   fun:_ZN4llvm18ConstantDataVector5getFPERNS_11LLVMContextENS_8ArrayRefIjEE
   fun:_ZN4llvm14ConstantVector7getImplENS_8ArrayRefIPNS_8ConstantEEE
   fun:_ZN4llvm14ConstantVector3getENS_8ArrayRefIPNS_8ConstantEEE
   fun:LLVMConstVector
   obj:*
   obj:*
   obj:*
   obj:*
   obj:*
   obj:*
}
{
   <insert_a_suppression_name_here>
   Memcheck:Leak
   match-leak-kinds: possible
   fun:malloc
   fun:_ZN4llvm22ConstantDataSequential7getImplENS_9StringRefEPNS_4TypeE
   fun:_ZN4llvm18ConstantDataVector5getFPERNS_11LLVMContextENS_8ArrayRefIjEE
   fun:_ZN4llvm14ConstantVector7getImplENS_8ArrayRefIPNS_8ConstantEEE
   fun:_ZN4llvm14ConstantVector3getENS_8ArrayRefIPNS_8ConstantEEE
   fun:LLVMConstVector
   obj:*
   obj:*
   obj:*
   obj:*
   obj:*
   obj:*
}
{
   <insert_a_suppression_name_here>
   Memcheck:Leak
   match-leak-kinds: possible
   fun:malloc
   fun:_ZN4llvm22ConstantDataSequential7getImplENS_9StringRefEPNS_4TypeE
   fun:_ZN4llvm18ConstantDataVector3getERNS_11LLVMContextENS_8ArrayRefIjEE
   fun:_ZN4llvm14ConstantVector7getImplENS_8ArrayRefIPNS_8ConstantEEE
   fun:_ZN4llvm14ConstantVector3getENS_8ArrayRefIPNS_8ConstantEEE
   fun:LLVMConstVector
   obj:*
   obj:*
   obj:*
   obj:*
   obj:*
   obj:*
}
{
   <insert_a_suppression_name_here>
   Memcheck:Leak
   match-leak-kinds: possible
   fun:malloc
   fun:_ZN4llvm22ConstantDataSequential7getImplENS_9StringRefEPNS_4TypeE
   fun:_ZN4llvm18ConstantDataVector3getERNS_11LLVMContextENS_8ArrayRefIjEE
   fun:_ZN4llvm14ConstantVector7getImplENS_8ArrayRefIPNS_8ConstantEEE
   fun:_ZN4llvm14ConstantVector3getENS_8ArrayRefIPNS_8ConstantEEE
   fun:_ZN4llvm29ConstantFoldBinaryInstructionEjPNS_8ConstantES1_
   fun:_ZN4llvm12ConstantExpr3getEjPNS_8ConstantES2_jPNS_4TypeE
   obj:/usr/lib/libLLVM-3.9.so
   obj:/usr/lib/libLLVM-3.9.so
   obj:/usr/lib/libLLVM-3.9.so
   obj:/usr/lib/libLLVM-3.9.so
   obj:/usr/lib/libLLVM-3.9.so
}
{
   <insert_a_suppression_name_here>
   Memcheck:Leak
   match-leak-kinds: possible
   fun:malloc
   fun:_ZN4llvm22ConstantDataSequential7getImplENS_9StringRefEPNS_4TypeE
   fun:_ZN4llvm18ConstantDataVector5getFPERNS_11LLVMContextENS_8ArrayRefIjEE
   fun:_ZN4llvm18ConstantDataVector8getSplatEjPNS_8ConstantE
   fun:_ZN4llvm14ConstantVector8getSplatEjPNS_8ConstantE
   fun:_ZN4llvm10ConstantFP15getNegativeZeroEPNS_4TypeE
   fun:_ZN4llvm12ConstantExpr7getFNegEPNS_8ConstantE
   obj:/usr/lib/libLLVM-3.9.so
   obj:/usr/lib/libLLVM-3.9.so
   obj:/usr/lib/libLLVM-3.9.so
   fun:_ZN4llvm24InstructionCombiningPass13runOnFunctionERNS_8FunctionE
   fun:_ZN4llvm13FPPassManager13runOnFunctionERNS_8FunctionE
}
{
   <insert_a_suppression_name_here>
   Memcheck:Leak
   match-leak-kinds: possible
   fun:malloc
   fun:_ZN4llvm22ConstantDataSequential7getImplENS_9StringRefEPNS_4TypeE
   fun:_ZN4llvm18ConstantDataVector3getERNS_11LLVMContextENS_8ArrayRefIjEE
   fun:_ZN4llvm14ConstantVector7getImplENS_8ArrayRefIPNS_8ConstantEEE
   fun:_ZN4llvm14ConstantVector3getENS_8ArrayRefIPNS_8ConstantEEE
   fun:LLVMConstVector
   obj:*
   obj:*
   obj:*
   obj:*
   obj:*
   obj:*
}
{
   <insert_a_suppression_name_here>
   Memcheck:Leak
   match-leak-kinds: possible
   fun:malloc
   fun:_ZN4llvm22ConstantDataSequential7getImplENS_9StringRefEPNS_4TypeE
   fun:_ZN4llvm18ConstantDataVector3getERNS_11LLVMContextENS_8ArrayRefIjEE
   fun:_ZN4llvm14ConstantVector7getImplENS_8ArrayRefIPNS_8ConstantEEE
   fun:_ZN4llvm14ConstantVector3getENS_8ArrayRefIPNS_8ConstantEEE
   fun:LLVMConstVector
   obj:*
   obj:*
   obj:*
   obj:*
   obj:*
   obj:*
}
{
   <insert_a_suppression_name_here>
   Memcheck:Leak
   match-leak-kinds: possible
   fun:malloc
   fun:_ZN4llvm22ConstantDataSequential7getImplENS_9StringRefEPNS_4TypeE
   fun:_ZN4llvm18ConstantDataVector5getFPERNS_11LLVMContextENS_8ArrayRefIjEE
   fun:_ZN4llvm14ConstantVector7getImplENS_8ArrayRefIPNS_8ConstantEEE
   fun:_ZN4llvm14ConstantVector3getENS_8ArrayRefIPNS_8ConstantEEE
   fun:LLVMConstVector
   obj:*
   obj:*
   obj:*
   obj:*
   obj:*
   obj:*
}
{
   <insert_a_suppression_name_here>
   Memcheck:Leak
   match-leak-kinds: possible
   fun:malloc
   fun:_ZN4llvm22ConstantDataSequential7getImplENS_9StringRefEPNS_4TypeE
   fun:_ZN4llvm18ConstantDataVector3getERNS_11LLVMContextENS_8ArrayRefIjEE
   fun:_ZN4llvm14ConstantVector7getImplENS_8ArrayRefIPNS_8ConstantEEE
   fun:_ZN4llvm14ConstantVector3getENS_8ArrayRefIPNS_8ConstantEEE
   fun:_ZN4llvm29ConstantFoldBinaryInstructionEjPNS_8ConstantES1_
   fun:_ZN4llvm12ConstantExpr3getEjPNS_8ConstantES2_jPNS_4TypeE
   fun:LLVMBuildShl
   obj:*
   obj:*
   obj:*
   obj:*
}
{
   <insert_a_suppression_name_here>
   Memcheck:Leak
   match-leak-kinds: possible
   fun:malloc
   fun:_ZN4llvm22ConstantDataSequential7getImplENS_9StringRefEPNS_4TypeE
   fun:_ZN4llvm18ConstantDataVector3getERNS_11LLVMContextENS_8ArrayRefIjEE
   fun:_ZN4llvm14ConstantVector7getImplENS_8ArrayRefIPNS_8ConstantEEE
   fun:_ZN4llvm14ConstantVector3getENS_8ArrayRefIPNS_8ConstantEEE
   fun:_ZN4llvm29ConstantFoldBinaryInstructionEjPNS_8ConstantES1_
   fun:_ZN4llvm12ConstantExpr3getEjPNS_8ConstantES2_jPNS_4TypeE
   fun:LLVMBuildShl
   obj:*
   obj:*
   obj:*
   obj:*
}
{
   <insert_a_suppression_name_here>
   Memcheck:Leak
   match-leak-kinds: possible
   fun:malloc
   fun:_ZN4llvm22ConstantDataSequential7getImplENS_9StringRefEPNS_4TypeE
   fun:_ZN4llvm18ConstantDataVector3getERNS_11LLVMContextENS_8ArrayRefIjEE
   fun:_ZN4llvm14ConstantVector7getImplENS_8ArrayRefIPNS_8ConstantEEE
   fun:_ZN4llvm14ConstantVector3getENS_8ArrayRefIPNS_8ConstantEEE
   fun:LLVMConstVector
   obj:*
   obj:*
   obj:*
   obj:*
   obj:*
   obj:*
}
{
   <insert_a_suppression_name_here>
   Memcheck:Leak
   match-leak-kinds: possible
   fun:malloc
   fun:_ZN4llvm22ConstantDataSequential7getImplENS_9StringRefEPNS_4TypeE
   fun:_ZN4llvm18ConstantDataVector3getERNS_11LLVMContextENS_8ArrayRefIjEE
   fun:_ZN4llvm14ConstantVector7getImplENS_8ArrayRefIPNS_8ConstantEEE
   fun:_ZN4llvm14ConstantVector3getENS_8ArrayRefIPNS_8ConstantEEE
   fun:_ZN4llvm29ConstantFoldBinaryInstructionEjPNS_8ConstantES1_
   fun:_ZN4llvm12ConstantExpr3getEjPNS_8ConstantES2_jPNS_4TypeE
   fun:_ZN4llvm28ConstantFoldBinaryOpOperandsEjPNS_8ConstantES1_RKNS_10DataLayoutE
   obj:/usr/lib/libLLVM-3.9.so
   obj:/usr/lib/libLLVM-3.9.so
   obj:/usr/lib/libLLVM-3.9.so
   fun:_ZN4llvm13SimplifyBinOpEjPNS_5ValueES1_RKNS_10DataLayoutEPKNS_17TargetLibraryInfoEPKNS_13DominatorTreeEPNS_15AssumptionCacheEPKNS_11InstructionE
}
{
   <insert_a_suppression_name_here>
   Memcheck:Leak
   match-leak-kinds: possible
   fun:malloc
   fun:_ZN4llvm22ConstantDataSequential7getImplENS_9StringRefEPNS_4TypeE
   fun:_ZN4llvm18ConstantDataVector5getFPERNS_11LLVMContextENS_8ArrayRefIjEE
   fun:_ZN4llvm14ConstantVector7getImplENS_8ArrayRefIPNS_8ConstantEEE
   fun:_ZN4llvm14ConstantVector3getENS_8ArrayRefIPNS_8ConstantEEE
   fun:LLVMConstVector
   obj:*
   obj:*
   obj:*
   obj:*
   obj:*
   obj:*
}
{
   <insert_a_suppression_name_here>
   Memcheck:Leak
   match-leak-kinds: possible
   fun:malloc
   fun:_ZN4llvm22ConstantDataSequential7getImplENS_9StringRefEPNS_4TypeE
   fun:_ZN4llvm18ConstantDataVector3getERNS_11LLVMContextENS_8ArrayRefIjEE
   fun:_ZN4llvm14ConstantVector7getImplENS_8ArrayRefIPNS_8ConstantEEE
   fun:_ZN4llvm14ConstantVector3getENS_8ArrayRefIPNS_8ConstantEEE
   fun:LLVMConstVector
   obj:*
   obj:*
   obj:*
   obj:*
   obj:*
   obj:*
}
{
   <insert_a_suppression_name_here>
   Memcheck:Leak
   match-leak-kinds: possible
   fun:malloc
   fun:_ZN4llvm22ConstantDataSequential7getImplENS_9StringRefEPNS_4TypeE
   fun:_ZN4llvm18ConstantDataVector3getERNS_11LLVMContextENS_8ArrayRefIjEE
   fun:_ZN4llvm14ConstantVector7getImplENS_8ArrayRefIPNS_8ConstantEEE
   fun:_ZN4llvm14ConstantVector3getENS_8ArrayRefIPNS_8ConstantEEE
   fun:LLVMConstVector
   obj:*
   obj:*
   obj:*
   obj:*
   obj:*
   obj:*
}
{
   <insert_a_suppression_name_here>
   Memcheck:Leak
   match-leak-kinds: possible
   fun:malloc
   fun:_ZN4llvm22ConstantDataSequential7getImplENS_9StringRefEPNS_4TypeE
   fun:_ZN4llvm18ConstantDataVector3getERNS_11LLVMContextENS_8ArrayRefIjEE
   fun:_ZN4llvm14ConstantVector7getImplENS_8ArrayRefIPNS_8ConstantEEE
   fun:_ZN4llvm14ConstantVector3getENS_8ArrayRefIPNS_8ConstantEEE
   fun:LLVMConstVector
   obj:*
   obj:*
   obj:*
   obj:*
   obj:*
   obj:*
}
{
   <insert_a_suppression_name_here>
   Memcheck:Leak
   match-leak-kinds: possible
   fun:malloc
   fun:_ZN4llvm22ConstantDataSequential7getImplENS_9StringRefEPNS_4TypeE
   fun:_ZN4llvm18ConstantDataVector3getERNS_11LLVMContextENS_8ArrayRefIjEE
   fun:_ZN4llvm14ConstantVector7getImplENS_8ArrayRefIPNS_8ConstantEEE
   fun:_ZN4llvm14ConstantVector3getENS_8ArrayRefIPNS_8ConstantEEE
   fun:LLVMConstVector
   obj:*
   obj:*
   obj:*
   obj:*
   obj:*
   obj:*
}
{
   <insert_a_suppression_name_here>
   Memcheck:Leak
   match-leak-kinds: possible
   fun:malloc
   fun:_ZN4llvm22ConstantDataSequential7getImplENS_9StringRefEPNS_4TypeE
   fun:_ZN4llvm18ConstantDataVector5getFPERNS_11LLVMContextENS_8ArrayRefIjEE
   fun:_ZN4llvm14ConstantVector7getImplENS_8ArrayRefIPNS_8ConstantEEE
   fun:_ZN4llvm14ConstantVector3getENS_8ArrayRefIPNS_8ConstantEEE
   fun:LLVMConstVector
   obj:*
   obj:*
   obj:*
   obj:*
   obj:*
   obj:*
}
{
   <insert_a_suppression_name_here>
   Memcheck:Leak
   match-leak-kinds: possible
   fun:malloc
   fun:_ZN4llvm22ConstantDataSequential7getImplENS_9StringRefEPNS_4TypeE
   fun:_ZN4llvm18ConstantDataVector5getFPERNS_11LLVMContextENS_8ArrayRefIjEE
   fun:_ZN4llvm14ConstantVector7getImplENS_8ArrayRefIPNS_8ConstantEEE
   fun:_ZN4llvm14ConstantVector3getENS_8ArrayRefIPNS_8ConstantEEE
   fun:LLVMConstVector
   obj:*
   obj:*
   obj:*
   obj:*
   obj:*
   obj:*
}
{
   <insert_a_suppression_name_here>
   Memcheck:Leak
   match-leak-kinds: possible
   fun:malloc
   fun:_ZN4llvm22ConstantDataSequential7getImplENS_9StringRefEPNS_4TypeE
   fun:_ZN4llvm18ConstantDataVector3getERNS_11LLVMContextENS_8ArrayRefIjEE
   fun:_ZN4llvm14ConstantVector7getImplENS_8ArrayRefIPNS_8ConstantEEE
   fun:_ZN4llvm14ConstantVector3getENS_8ArrayRefIPNS_8ConstantEEE
   fun:_ZN4llvm29ConstantFoldBinaryInstructionEjPNS_8ConstantES1_
   fun:_ZN4llvm12ConstantExpr3getEjPNS_8ConstantES2_jPNS_4TypeE
   obj:/usr/lib/libLLVM-3.9.so
   obj:/usr/lib/libLLVM-3.9.so
   obj:/usr/lib/libLLVM-3.9.so
   fun:_ZN4llvm24InstructionCombiningPass13runOnFunctionERNS_8FunctionE
   fun:_ZN4llvm13FPPassManager13runOnFunctionERNS_8FunctionE
}
{
   <insert_a_suppression_name_here>
   Memcheck:Leak
   match-leak-kinds: possible
   fun:malloc
   fun:_ZNK4llvm11LLVMContext11getMDKindIDENS_9StringRefE
   fun:_ZN4llvm11LLVMContextC1Ev
   fun:LLVMContextCreate
   obj:*
   obj:*
   obj:*
   obj:*
   obj:*
   obj:/usr/lib/libGLX_mesa.so.0.0.0
   obj:/usr/lib/libGLX_mesa.so.0.0.0
   obj:/usr/lib/libGLX_mesa.so.0.0.0
}
{
   <insert_a_suppression_name_here>
   Memcheck:Leak
   match-leak-kinds: possible
   fun:_Znwm
   fun:_ZN4llvm16AttributeSetNode3getERNS_11LLVMContextENS_8ArrayRefINS_9AttributeEEE
   fun:_ZN4llvm12AttributeSet3getERNS_11LLVMContextENS_8ArrayRefISt4pairIjNS_9AttributeEEEE
   fun:_ZN4llvm12AttributeSet3getERNS_11LLVMContextEjNS_8ArrayRefINS_9Attribute8AttrKindEEE
   fun:_ZN4llvm9Intrinsic13getAttributesERNS_11LLVMContextENS0_2IDE
   fun:_ZN4llvm8FunctionC1EPNS_12FunctionTypeENS_11GlobalValue12LinkageTypesERKNS_5TwineEPNS_6ModuleE
   fun:LLVMAddFunction
   obj:*
   obj:*
   obj:*
   obj:*
   obj:*
}
{
   <insert_a_suppression_name_here>
   Memcheck:Leak
   match-leak-kinds: possible
   fun:calloc
   obj:*
   obj:*
   obj:*
   obj:*
   obj:*
   obj:*
   obj:*
   obj:*
   obj:*
   obj:*
   obj:/usr/lib/libGLX_mesa.so.0.0.0
}
{
   <insert_a_suppression_name_here>
   Memcheck:Leak
   match-leak-kinds: possible
   fun:calloc
   obj:*
   obj:*
   obj:*
   obj:*
   obj:*
   obj:*
   obj:*
   obj:*
   obj:*
   obj:*
   obj:/usr/lib/libGLX_mesa.so.0.0.0
}
{
   <insert_a_suppression_name_here>
   Memcheck:Leak
   match-leak-kinds: possible
   fun:calloc
   obj:*
   obj:*
   obj:*
   obj:*
   obj:*
   obj:*
   obj:*
   obj:/usr/lib/libGLX_mesa.so.0.0.0
   obj:/usr/lib/libGLX_mesa.so.0.0.0
   obj:/usr/lib/libGLX_mesa.so.0.0.0
   fun:glXCreateContext
}
{
   <insert_a_suppression_name_here>
   Memcheck:Leak
   match-leak-kinds: possible
   fun:calloc
   obj:*
   obj:*
   obj:*
   obj:*
   obj:*
   obj:*
   obj:*
   obj:*
   obj:/usr/lib/libGLX_mesa.so.0.0.0
   obj:/usr/lib/libGLX_mesa.so.0.0.0
   obj:/usr/lib/libGLX_mesa.so.0.0.0
}
{
   <insert_a_suppression_name_here>
   Memcheck:Leak
   match-leak-kinds: possible
   fun:calloc
   obj:*
   obj:*
   obj:*
   obj:*
   obj:*
   obj:*
   obj:*
   obj:*
   obj:/usr/lib/libGLX_mesa.so.0.0.0
   obj:/usr/lib/libGLX_mesa.so.0.0.0
   obj:/usr/lib/libGLX.so.0.0.0
}
{
   <insert_a_suppression_name_here>
   Memcheck:Leak
   match-leak-kinds: possible
   fun:_Znwm
   fun:_ZN4llvm4UsernwEmj
   fun:_ZN4llvm22ConstantDataSequential7getImplENS_9StringRefEPNS_4TypeE
   fun:_ZN4llvm18ConstantDataVector5getFPERNS_11LLVMContextENS_8ArrayRefIjEE
   fun:_ZN4llvm14ConstantVector7getImplENS_8ArrayRefIPNS_8ConstantEEE
   fun:_ZN4llvm14ConstantVector3getENS_8ArrayRefIPNS_8ConstantEEE
   fun:LLVMConstVector
   obj:*
   obj:*
   obj:*
   obj:*
   obj:*
}
{
   <insert_a_suppression_name_here>
   Memcheck:Leak
   match-leak-kinds: possible
   fun:_Znwm
   fun:_ZN4llvm4UsernwEmj
   fun:_ZN4llvm11ConstantInt3getERNS_11LLVMContextERKNS_5APIntE
   fun:_ZN4llvm11ConstantInt3getEPNS_11IntegerTypeEmb
   obj:*
   obj:*
   obj:*
   obj:*
   obj:*
   obj:*
   obj:*
   obj:*
}
{
   <insert_a_suppression_name_here>
   Memcheck:Leak
   match-leak-kinds: possible
   fun:_Znwm
   fun:_ZN4llvm4UsernwEmj
   fun:_ZN4llvm22ConstantDataSequential7getImplENS_9StringRefEPNS_4TypeE
   fun:_ZN4llvm18ConstantDataVector3getERNS_11LLVMContextENS_8ArrayRefIjEE
   fun:_ZN4llvm14ConstantVector7getImplENS_8ArrayRefIPNS_8ConstantEEE
   fun:_ZN4llvm14ConstantVector3getENS_8ArrayRefIPNS_8ConstantEEE
   fun:LLVMConstVector
   obj:*
   obj:*
   obj:*
   obj:*
   obj:*
}
{
   <insert_a_suppression_name_here>
   Memcheck:Leak
   match-leak-kinds: possible
   fun:_Znwm
   fun:_ZN4llvm4UsernwEmj
   fun:_ZN4llvm11ConstantInt3getERNS_11LLVMContextERKNS_5APIntE
   fun:_ZN4llvm8Constant15getAllOnesValueEPNS_4TypeE
   fun:_ZN4llvm8Constant15getAllOnesValueEPNS_4TypeE
   obj:*
   obj:*
   obj:*
   obj:*
   obj:*
   obj:*
   obj:*
}
{
   <insert_a_suppression_name_here>
   Memcheck:Leak
   match-leak-kinds: possible
   fun:_Znwm
   fun:_ZN4llvm4UsernwEmj
   fun:_ZN4llvm22ConstantDataSequential7getImplENS_9StringRefEPNS_4TypeE
   fun:_ZN4llvm18ConstantDataVector3getERNS_11LLVMContextENS_8ArrayRefIjEE
   fun:_ZN4llvm18ConstantDataVector8getSplatEjPNS_8ConstantE
   fun:_ZN4llvm14ConstantVector8getSplatEjPNS_8ConstantE
   fun:_ZN4llvm8Constant15getAllOnesValueEPNS_4TypeE
   obj:*
   obj:*
   obj:*
   obj:*
   obj:*
}
{
   <insert_a_suppression_name_here>
   Memcheck:Leak
   match-leak-kinds: possible
   fun:_Znwm
   fun:_ZN4llvm4UsernwEmj
   fun:_ZN4llvm22ConstantDataSequential7getImplENS_9StringRefEPNS_4TypeE
   fun:_ZN4llvm18ConstantDataVector5getFPERNS_11LLVMContextENS_8ArrayRefIjEE
   fun:_ZN4llvm14ConstantVector7getImplENS_8ArrayRefIPNS_8ConstantEEE
   fun:_ZN4llvm14ConstantVector3getENS_8ArrayRefIPNS_8ConstantEEE
   fun:LLVMConstVector
   obj:*
   obj:*
   obj:*
   obj:*
   obj:*
}
{
   <insert_a_suppression_name_here>
   Memcheck:Leak
   match-leak-kinds: possible
   fun:_Znwm
   fun:_ZN4llvm12AttributeSet7getImplERNS_11LLVMContextENS_8ArrayRefISt4pairIjPNS_16AttributeSetNodeEEEE
   fun:_ZN4llvm12AttributeSet3getERNS_11LLVMContextENS_8ArrayRefISt4pairIjNS_9AttributeEEEE
   fun:_ZN4llvm12AttributeSet3getERNS_11LLVMContextEjNS_8ArrayRefINS_9Attribute8AttrKindEEE
   fun:_ZN4llvm9Intrinsic13getAttributesERNS_11LLVMContextENS0_2IDE
   fun:_ZN4llvm8FunctionC1EPNS_12FunctionTypeENS_11GlobalValue12LinkageTypesERKNS_5TwineEPNS_6ModuleE
   fun:LLVMAddFunction
   obj:*
   obj:*
   obj:*
   obj:*
   obj:*
}
{
   <insert_a_suppression_name_here>
   Memcheck:Leak
   match-leak-kinds: possible
   fun:_Znwm
   fun:_ZN4llvm12AttributeSet7getImplERNS_11LLVMContextENS_8ArrayRefISt4pairIjPNS_16AttributeSetNodeEEEE
   fun:_ZN4llvm12AttributeSet3getERNS_11LLVMContextENS_8ArrayRefISt4pairIjNS_9AttributeEEEE
   fun:_ZN4llvm12AttributeSet3getERNS_11LLVMContextEjRKNS_11AttrBuilderE
   fun:LLVMAddFunctionAttr
   obj:*
   obj:*
   obj:*
   obj:*
   obj:*
   obj:*
   obj:*
}
{
   <insert_a_suppression_name_here>
   Memcheck:Leak
   match-leak-kinds: possible
   fun:_Znwm
   fun:_ZN4llvm4UsernwEmj
   fun:_ZN4llvm22ConstantDataSequential7getImplENS_9StringRefEPNS_4TypeE
   fun:_ZN4llvm18ConstantDataVector3getERNS_11LLVMContextENS_8ArrayRefIjEE
   fun:_ZN4llvm14ConstantVector7getImplENS_8ArrayRefIPNS_8ConstantEEE
   fun:_ZN4llvm14ConstantVector3getENS_8ArrayRefIPNS_8ConstantEEE
   fun:LLVMConstVector
   obj:*
   obj:*
   obj:*
   obj:*
   obj:*
}
{
   <insert_a_suppression_name_here>
   Memcheck:Leak
   match-leak-kinds: possible
   fun:_Znwm
   fun:_ZN4llvm4UsernwEmj
   fun:_ZN4llvm22ConstantDataSequential7getImplENS_9StringRefEPNS_4TypeE
   fun:_ZN4llvm18ConstantDataVector3getERNS_11LLVMContextENS_8ArrayRefIjEE
   fun:_ZN4llvm14ConstantVector7getImplENS_8ArrayRefIPNS_8ConstantEEE
   fun:_ZN4llvm14ConstantVector3getENS_8ArrayRefIPNS_8ConstantEEE
   fun:LLVMConstVector
   obj:*
   obj:*
   obj:*
   obj:*
   obj:*
}
{
   <insert_a_suppression_name_here>
   Memcheck:Leak
   match-leak-kinds: possible
   fun:_Znwm
   fun:_ZN4llvm4UsernwEmj
   fun:_ZN4llvm11ConstantInt3getERNS_11LLVMContextERKNS_5APIntE
   fun:_ZN4llvm11ConstantInt3getEPNS_11IntegerTypeEmb
   obj:*
   obj:*
   obj:*
   obj:*
   obj:*
   obj:*
   obj:*
   obj:*
}
{
   <insert_a_suppression_name_here>
   Memcheck:Leak
   match-leak-kinds: possible
   fun:_Znwm
   fun:_ZN4llvm4UsernwEmj
   fun:_ZN4llvm22ConstantDataSequential7getImplENS_9StringRefEPNS_4TypeE
   fun:_ZN4llvm18ConstantDataVector3getERNS_11LLVMContextENS_8ArrayRefIjEE
   fun:_ZN4llvm14ConstantVector7getImplENS_8ArrayRefIPNS_8ConstantEEE
   fun:_ZN4llvm14ConstantVector3getENS_8ArrayRefIPNS_8ConstantEEE
   fun:LLVMConstVector
   obj:*
   obj:*
   obj:*
   obj:*
   obj:*
}
{
   <insert_a_suppression_name_here>
   Memcheck:Leak
   match-leak-kinds: possible
   fun:_Znwm
   fun:_ZN4llvm4UsernwEmj
   fun:_ZN4llvm11ConstantInt3getERNS_11LLVMContextERKNS_5APIntE
   fun:_ZN4llvm11ConstantInt3getEPNS_11IntegerTypeEmb
   obj:*
   obj:*
   obj:*
   obj:*
   obj:*
   obj:*
   obj:*
   obj:*
}
{
   <insert_a_suppression_name_here>
   Memcheck:Leak
   match-leak-kinds: possible
   fun:_Znwm
   fun:_ZN4llvm4UsernwEmj
   fun:_ZN4llvm22ConstantDataSequential7getImplENS_9StringRefEPNS_4TypeE
   fun:_ZN4llvm18ConstantDataVector3getERNS_11LLVMContextENS_8ArrayRefIjEE
   fun:_ZN4llvm14ConstantVector7getImplENS_8ArrayRefIPNS_8ConstantEEE
   fun:_ZN4llvm14ConstantVector3getENS_8ArrayRefIPNS_8ConstantEEE
   fun:LLVMConstVector
   obj:*
   obj:*
   obj:*
   obj:*
   obj:*
}
{
   <insert_a_suppression_name_here>
   Memcheck:Leak
   match-leak-kinds: possible
   fun:_Znwm
   fun:_ZN4llvm4UsernwEmj
   fun:_ZN4llvm11ConstantInt3getERNS_11LLVMContextERKNS_5APIntE
   fun:_ZN4llvm11ConstantInt3getEPNS_11IntegerTypeEmb
   obj:*
   obj:*
   obj:*
   obj:*
   obj:*
   obj:*
   obj:*
   obj:*
}
{
   <insert_a_suppression_name_here>
   Memcheck:Leak
   match-leak-kinds: possible
   fun:_Znwm
   fun:_ZN4llvm4UsernwEmj
   fun:_ZN4llvm22ConstantDataSequential7getImplENS_9StringRefEPNS_4TypeE
   fun:_ZN4llvm18ConstantDataVector3getERNS_11LLVMContextENS_8ArrayRefIjEE
   fun:_ZN4llvm14ConstantVector7getImplENS_8ArrayRefIPNS_8ConstantEEE
   fun:_ZN4llvm14ConstantVector3getENS_8ArrayRefIPNS_8ConstantEEE
   fun:LLVMConstVector
   obj:*
   obj:*
   obj:*
   obj:*
   obj:*
}
{
   <insert_a_suppression_name_here>
   Memcheck:Leak
   match-leak-kinds: possible
   fun:_Znwm
   fun:_ZN4llvm4UsernwEmj
   fun:_ZN4llvm22ConstantDataSequential7getImplENS_9StringRefEPNS_4TypeE
   fun:_ZN4llvm18ConstantDataVector5getFPERNS_11LLVMContextENS_8ArrayRefIjEE
   fun:_ZN4llvm14ConstantVector7getImplENS_8ArrayRefIPNS_8ConstantEEE
   fun:_ZN4llvm14ConstantVector3getENS_8ArrayRefIPNS_8ConstantEEE
   fun:LLVMConstVector
   obj:*
   obj:*
   obj:*
   obj:*
   obj:*
}
{
   <insert_a_suppression_name_here>
   Memcheck:Leak
   match-leak-kinds: possible
   fun:_Znwm
   fun:_ZN4llvm4UsernwEmj
   fun:_ZN4llvm11ConstantInt3getERNS_11LLVMContextERKNS_5APIntE
   fun:_ZN4llvm11ConstantInt3getEPNS_11IntegerTypeEmb
   fun:_ZN4llvm11ConstantInt3getEPNS_4TypeEmb
   fun:_ZN4llvm8Constant12getNullValueEPNS_4TypeE
   obj:*
   obj:*
   obj:*
   obj:*
   obj:*
   obj:*
}
{
   <insert_a_suppression_name_here>
   Memcheck:Leak
   match-leak-kinds: possible
   fun:_Znwm
   fun:_ZN4llvm4UsernwEmj
   fun:_ZN4llvm22ConstantDataSequential7getImplENS_9StringRefEPNS_4TypeE
   fun:_ZN4llvm18ConstantDataVector3getERNS_11LLVMContextENS_8ArrayRefIjEE
   fun:_ZN4llvm14ConstantVector7getImplENS_8ArrayRefIPNS_8ConstantEEE
   fun:_ZN4llvm14ConstantVector3getENS_8ArrayRefIPNS_8ConstantEEE
   fun:LLVMConstVector
   obj:*
   obj:*
   obj:*
   obj:*
   obj:*
}
{
   <insert_a_suppression_name_here>
   Memcheck:Leak
   match-leak-kinds: possible
   fun:_Znwm
   fun:_ZN4llvm4UsernwEmj
   fun:_ZN4llvm22ConstantDataSequential7getImplENS_9StringRefEPNS_4TypeE
   fun:_ZN4llvm18ConstantDataVector3getERNS_11LLVMContextENS_8ArrayRefIjEE
   fun:_ZN4llvm14ConstantVector7getImplENS_8ArrayRefIPNS_8ConstantEEE
   fun:_ZN4llvm14ConstantVector3getENS_8ArrayRefIPNS_8ConstantEEE
   fun:LLVMConstVector
   obj:*
   obj:*
   obj:*
   obj:*
   obj:*
}
{
   <insert_a_suppression_name_here>
   Memcheck:Leak
   match-leak-kinds: possible
   fun:_Znwm
   fun:_ZN4llvm4UsernwEmj
   fun:_ZN4llvm22ConstantDataSequential7getImplENS_9StringRefEPNS_4TypeE
   fun:_ZN4llvm18ConstantDataVector5getFPERNS_11LLVMContextENS_8ArrayRefImEE
   fun:_ZN4llvm14ConstantVector7getImplENS_8ArrayRefIPNS_8ConstantEEE
   fun:_ZN4llvm14ConstantVector3getENS_8ArrayRefIPNS_8ConstantEEE
   fun:LLVMConstVector
   obj:*
   obj:*
   obj:*
   obj:*
   obj:*
}
{
   <insert_a_suppression_name_here>
   Memcheck:Leak
   match-leak-kinds: possible
   fun:_Znwm
   fun:_ZN4llvm4UsernwEmj
   fun:_ZN4llvm11ConstantInt3getERNS_11LLVMContextERKNS_5APIntE
   fun:_ZN4llvm11ConstantInt3getEPNS_11IntegerTypeEmb
   obj:*
   obj:*
   obj:*
   obj:*
   obj:*
   obj:*
   obj:*
   obj:*
}
{
   <insert_a_suppression_name_here>
   Memcheck:Leak
   match-leak-kinds: possible
   fun:_Znwm
   fun:_ZN4llvm4UsernwEmj
   fun:_ZN4llvm22ConstantDataSequential7getImplENS_9StringRefEPNS_4TypeE
   fun:_ZN4llvm18ConstantDataVector3getERNS_11LLVMContextENS_8ArrayRefImEE
   fun:_ZN4llvm14ConstantVector7getImplENS_8ArrayRefIPNS_8ConstantEEE
   fun:_ZN4llvm14ConstantVector3getENS_8ArrayRefIPNS_8ConstantEEE
   fun:LLVMConstVector
   obj:*
   obj:*
   obj:*
   obj:*
   obj:*
}
{
   <insert_a_suppression_name_here>
   Memcheck:Leak
   match-leak-kinds: possible
   fun:_Znwm
   fun:_ZN4llvm4UsernwEmj
   fun:_ZN4llvm11ConstantInt3getERNS_11LLVMContextERKNS_5APIntE
   fun:_ZN4llvm11ConstantInt3getEPNS_11IntegerTypeEmb
   obj:*
   obj:*
   obj:*
   obj:*
   obj:*
   obj:*
   obj:*
   obj:*
}
{
   <insert_a_suppression_name_here>
   Memcheck:Leak
   match-leak-kinds: possible
   fun:_Znwm
   fun:_ZN4llvm4UsernwEmj
   fun:_ZN4llvm22ConstantDataSequential7getImplENS_9StringRefEPNS_4TypeE
   fun:_ZN4llvm18ConstantDataVector5getFPERNS_11LLVMContextENS_8ArrayRefIjEE
   fun:_ZN4llvm14ConstantVector7getImplENS_8ArrayRefIPNS_8ConstantEEE
   fun:_ZN4llvm14ConstantVector3getENS_8ArrayRefIPNS_8ConstantEEE
   fun:LLVMConstVector
   obj:*
   obj:*
   obj:*
   obj:*
   obj:*
}
{
   <insert_a_suppression_name_here>
   Memcheck:Leak
   match-leak-kinds: possible
   fun:_Znwm
   fun:_ZN4llvm4UsernwEmj
   fun:_ZN4llvm11ConstantInt3getERNS_11LLVMContextERKNS_5APIntE
   fun:_ZN4llvm11ConstantInt3getEPNS_11IntegerTypeEmb
   obj:*
   obj:*
   obj:*
   obj:*
   obj:*
   obj:*
   obj:*
   obj:*
}
{
   <insert_a_suppression_name_here>
   Memcheck:Leak
   match-leak-kinds: possible
   fun:_Znwm
   fun:_ZN4llvm4UsernwEmj
   fun:_ZN4llvm11ConstantInt3getERNS_11LLVMContextERKNS_5APIntE
   fun:_ZN4llvm11ConstantInt3getEPNS_11IntegerTypeEmb
   obj:*
   obj:*
   obj:*
   obj:*
   obj:*
   obj:*
   obj:*
   obj:*
}
{
   <insert_a_suppression_name_here>
   Memcheck:Leak
   match-leak-kinds: possible
   fun:_Znwm
   fun:_ZN4llvm4UsernwEmj
   fun:_ZN4llvm11ConstantInt3getERNS_11LLVMContextERKNS_5APIntE
   fun:_ZN4llvm11ConstantInt3getEPNS_11IntegerTypeEmb
   obj:*
   obj:*
   obj:*
   obj:*
   obj:*
   obj:*
   obj:*
   obj:*
}
{
   <insert_a_suppression_name_here>
   Memcheck:Leak
   match-leak-kinds: possible
   fun:_Znwm
   fun:_ZN4llvm4UsernwEmj
   fun:_ZN4llvm22ConstantDataSequential7getImplENS_9StringRefEPNS_4TypeE
   fun:_ZN4llvm18ConstantDataVector3getERNS_11LLVMContextENS_8ArrayRefIjEE
   fun:_ZN4llvm14ConstantVector7getImplENS_8ArrayRefIPNS_8ConstantEEE
   fun:_ZN4llvm14ConstantVector3getENS_8ArrayRefIPNS_8ConstantEEE
   fun:LLVMConstVector
   obj:*
   obj:*
   obj:*
   obj:*
   obj:*
}
{
   <insert_a_suppression_name_here>
   Memcheck:Leak
   match-leak-kinds: possible
   fun:_Znwm
   fun:_ZN4llvm4UsernwEmj
   fun:_ZN4llvm22ConstantDataSequential7getImplENS_9StringRefEPNS_4TypeE
   fun:_ZN4llvm18ConstantDataVector3getERNS_11LLVMContextENS_8ArrayRefIjEE
   fun:_ZN4llvm14ConstantVector7getImplENS_8ArrayRefIPNS_8ConstantEEE
   fun:_ZN4llvm14ConstantVector3getENS_8ArrayRefIPNS_8ConstantEEE
   fun:LLVMConstVector
   obj:*
   obj:*
   obj:*
   obj:*
   obj:*
}
{
   <insert_a_suppression_name_here>
   Memcheck:Leak
   match-leak-kinds: possible
   fun:_Znwm
   fun:_ZN4llvm4UsernwEmj
   fun:_ZN4llvm22ConstantDataSequential7getImplENS_9StringRefEPNS_4TypeE
   fun:_ZN4llvm18ConstantDataVector3getERNS_11LLVMContextENS_8ArrayRefIjEE
   fun:_ZN4llvm14ConstantVector7getImplENS_8ArrayRefIPNS_8ConstantEEE
   fun:_ZN4llvm14ConstantVector3getENS_8ArrayRefIPNS_8ConstantEEE
   fun:LLVMConstVector
   obj:*
   obj:*
   obj:*
   obj:*
   obj:*
}
{
   <insert_a_suppression_name_here>
   Memcheck:Leak
   match-leak-kinds: possible
   fun:_Znwm
   fun:_ZN4llvm4UsernwEmj
   fun:_ZN4llvm22ConstantDataSequential7getImplENS_9StringRefEPNS_4TypeE
   fun:_ZN4llvm18ConstantDataVector3getERNS_11LLVMContextENS_8ArrayRefIjEE
   fun:_ZN4llvm14ConstantVector7getImplENS_8ArrayRefIPNS_8ConstantEEE
   fun:_ZN4llvm14ConstantVector3getENS_8ArrayRefIPNS_8ConstantEEE
   fun:LLVMConstVector
   obj:*
   obj:*
   obj:*
   obj:*
   obj:*
}
{
   <insert_a_suppression_name_here>
   Memcheck:Leak
   match-leak-kinds: possible
   fun:_Znwm
   fun:_ZN4llvm4UsernwEmj
   fun:_ZN4llvm22ConstantDataSequential7getImplENS_9StringRefEPNS_4TypeE
   fun:_ZN4llvm18ConstantDataVector3getERNS_11LLVMContextENS_8ArrayRefIjEE
   fun:_ZN4llvm14ConstantVector7getImplENS_8ArrayRefIPNS_8ConstantEEE
   fun:_ZN4llvm14ConstantVector3getENS_8ArrayRefIPNS_8ConstantEEE
   fun:LLVMConstVector
   obj:*
   obj:*
   obj:*
   obj:*
   obj:*
}
{
   <insert_a_suppression_name_here>
   Memcheck:Leak
   match-leak-kinds: possible
   fun:_Znwm
   fun:_ZN4llvm4UsernwEmj
   fun:_ZN4llvm22ConstantDataSequential7getImplENS_9StringRefEPNS_4TypeE
   fun:_ZN4llvm18ConstantDataVector3getERNS_11LLVMContextENS_8ArrayRefIjEE
   fun:_ZN4llvm14ConstantVector7getImplENS_8ArrayRefIPNS_8ConstantEEE
   fun:_ZN4llvm14ConstantVector3getENS_8ArrayRefIPNS_8ConstantEEE
   fun:LLVMConstVector
   obj:*
   obj:*
   obj:*
   obj:*
   obj:*
}
{
   <insert_a_suppression_name_here>
   Memcheck:Leak
   match-leak-kinds: possible
   fun:_Znwm
   fun:_ZN4llvm4UsernwEmj
   fun:_ZN4llvm22ConstantDataSequential7getImplENS_9StringRefEPNS_4TypeE
   fun:_ZN4llvm18ConstantDataVector5getFPERNS_11LLVMContextENS_8ArrayRefIjEE
   fun:_ZN4llvm14ConstantVector7getImplENS_8ArrayRefIPNS_8ConstantEEE
   fun:_ZN4llvm14ConstantVector3getENS_8ArrayRefIPNS_8ConstantEEE
   fun:LLVMConstVector
   obj:*
   obj:*
   obj:*
   obj:*
   obj:*
}
{
   <insert_a_suppression_name_here>
   Memcheck:Leak
   match-leak-kinds: possible
   fun:_Znwm
   fun:_ZN4llvm4UsernwEmj
   fun:_ZN4llvm22ConstantDataSequential7getImplENS_9StringRefEPNS_4TypeE
   fun:_ZN4llvm18ConstantDataVector5getFPERNS_11LLVMContextENS_8ArrayRefIjEE
   fun:_ZN4llvm14ConstantVector7getImplENS_8ArrayRefIPNS_8ConstantEEE
   fun:_ZN4llvm14ConstantVector3getENS_8ArrayRefIPNS_8ConstantEEE
   fun:LLVMConstVector
   obj:*
   obj:*
   obj:*
   obj:*
   obj:*
}
{
   <insert_a_suppression_name_here>
   Memcheck:Leak
   match-leak-kinds: possible
   fun:_Znwm
   fun:_ZN4llvm4UsernwEmj
   fun:_ZN4llvm22ConstantDataSequential7getImplENS_9StringRefEPNS_4TypeE
   fun:_ZN4llvm18ConstantDataVector3getERNS_11LLVMContextENS_8ArrayRefIjEE
   fun:_ZN4llvm14ConstantVector7getImplENS_8ArrayRefIPNS_8ConstantEEE
   fun:_ZN4llvm14ConstantVector3getENS_8ArrayRefIPNS_8ConstantEEE
   fun:LLVMConstVector
   obj:*
   obj:*
   obj:*
   obj:*
   obj:*
}
{
   <insert_a_suppression_name_here>
   Memcheck:Leak
   match-leak-kinds: possible
   fun:_Znwm
   fun:_ZN4llvm4UsernwEmj
   fun:_ZN4llvm22ConstantDataSequential7getImplENS_9StringRefEPNS_4TypeE
   fun:_ZN4llvm18ConstantDataVector3getERNS_11LLVMContextENS_8ArrayRefIjEE
   fun:_ZN4llvm14ConstantVector7getImplENS_8ArrayRefIPNS_8ConstantEEE
   fun:_ZN4llvm14ConstantVector3getENS_8ArrayRefIPNS_8ConstantEEE
   fun:_ZN4llvm36ConstantFoldShuffleVectorInstructionEPNS_8ConstantES1_S1_
   fun:_ZN4llvm12ConstantExpr16getShuffleVectorEPNS_8ConstantES2_S2_PNS_4TypeE
   fun:LLVMBuildShuffleVector
   obj:*
   obj:*
   obj:*
}
{
   <insert_a_suppression_name_here>
   Memcheck:Leak
   match-leak-kinds: possible
   fun:_Znwm
   fun:_ZN4llvm4UsernwEmj
   fun:_ZN4llvm22ConstantDataSequential7getImplENS_9StringRefEPNS_4TypeE
   fun:_ZN4llvm18ConstantDataVector3getERNS_11LLVMContextENS_8ArrayRefIjEE
   fun:_ZN4llvm14ConstantVector7getImplENS_8ArrayRefIPNS_8ConstantEEE
   fun:_ZN4llvm14ConstantVector3getENS_8ArrayRefIPNS_8ConstantEEE
   fun:LLVMConstVector
   obj:*
   obj:*
   obj:*
   obj:*
   obj:*
}
{
   <insert_a_suppression_name_here>
   Memcheck:Leak
   match-leak-kinds: possible
   fun:_Znwm
   fun:_ZN4llvm4UsernwEmj
   fun:_ZN4llvm11ConstantInt3getERNS_11LLVMContextERKNS_5APIntE
   fun:_ZN4llvm8Constant15getAllOnesValueEPNS_4TypeE
   fun:_ZN4llvm8Constant15getAllOnesValueEPNS_4TypeE
   obj:*
   obj:*
   obj:*
   obj:*
   obj:*
   obj:*
   obj:*
}
{
   <insert_a_suppression_name_here>
   Memcheck:Leak
   match-leak-kinds: possible
   fun:_Znwm
   fun:_ZN4llvm4UsernwEmj
   fun:_ZN4llvm22ConstantDataSequential7getImplENS_9StringRefEPNS_4TypeE
   fun:_ZN4llvm18ConstantDataVector3getERNS_11LLVMContextENS_8ArrayRefIhEE
   fun:_ZN4llvm18ConstantDataVector8getSplatEjPNS_8ConstantE
   fun:_ZN4llvm14ConstantVector8getSplatEjPNS_8ConstantE
   fun:_ZN4llvm8Constant15getAllOnesValueEPNS_4TypeE
   obj:*
   obj:*
   obj:*
   obj:*
   obj:*
}
{
   <insert_a_suppression_name_here>
   Memcheck:Leak
   match-leak-kinds: possible
   fun:_Znwm
   fun:_ZN4llvm12AttributeSet7getImplERNS_11LLVMContextENS_8ArrayRefISt4pairIjPNS_16AttributeSetNodeEEEE
   fun:_ZN4llvm12AttributeSet3getERNS_11LLVMContextENS_8ArrayRefISt4pairIjNS_9AttributeEEEE
   fun:_ZN4llvm12AttributeSet3getERNS_11LLVMContextEjRKNS_11AttrBuilderE
   fun:LLVMAddTargetDependentFunctionAttr
   obj:*
   obj:*
   obj:*
   obj:*
   obj:*
   obj:*
   obj:*
}
{
   <insert_a_suppression_name_here>
   Memcheck:Leak
   match-leak-kinds: possible
   fun:_Znwm
   fun:_ZN4llvm12AttributeSet7getImplERNS_11LLVMContextENS_8ArrayRefISt4pairIjPNS_16AttributeSetNodeEEEE
   fun:_ZN4llvm12AttributeSet3getERNS_11LLVMContextENS_8ArrayRefISt4pairIjNS_9AttributeEEEE
   fun:_ZN4llvm12AttributeSet3getERNS_11LLVMContextEjRKNS_11AttrBuilderE
   fun:LLVMAddTargetDependentFunctionAttr
   obj:*
   obj:*
   obj:*
   obj:*
   obj:*
   obj:*
   obj:*
}
{
   <insert_a_suppression_name_here>
   Memcheck:Leak
   match-leak-kinds: possible
   fun:_Znwm
   fun:_ZN4llvm4UsernwEmj
   fun:_ZN4llvm11ConstantInt3getERNS_11LLVMContextERKNS_5APIntE
   fun:_ZN4llvm11ConstantInt3getEPNS_11IntegerTypeEmb
   fun:_ZN4llvm11ConstantInt3getEPNS_4TypeEmb
   fun:_ZN4llvm8Constant12getNullValueEPNS_4TypeE
   obj:/usr/lib/libLLVM-3.9.so
   obj:/usr/lib/libLLVM-3.9.so
   obj:/usr/lib/libLLVM-3.9.so
   fun:_ZN4llvm24InstructionCombiningPass13runOnFunctionERNS_8FunctionE
   fun:_ZN4llvm13FPPassManager13runOnFunctionERNS_8FunctionE
   fun:_ZN4llvm6legacy23FunctionPassManagerImpl3runERNS_8FunctionE
}
{
   <insert_a_suppression_name_here>
   Memcheck:Leak
   match-leak-kinds: possible
   fun:_Znwm
   fun:_ZN4llvm4UsernwEmj
   fun:_ZN4llvm11ConstantInt3getERNS_11LLVMContextERKNS_5APIntE
   fun:_ZN4llvm11ConstantInt3getEPNS_11IntegerTypeEmb
   fun:_ZN4llvm11ConstantInt3getEPNS_4TypeEmb
   fun:_ZN4llvm30ConstantFoldCompareInstructionEtPNS_8ConstantES1_
   fun:_ZN4llvm12ConstantExpr7getICmpEtPNS_8ConstantES2_b
   obj:/usr/lib/libLLVM-3.9.so
   obj:/usr/lib/libLLVM-3.9.so
   obj:/usr/lib/libLLVM-3.9.so
   fun:_ZN4llvm16SimplifyICmpInstEjPNS_5ValueES1_RKNS_10DataLayoutEPKNS_17TargetLibraryInfoEPKNS_13DominatorTreeEPNS_15AssumptionCacheEPKNS_11InstructionE
   obj:/usr/lib/libLLVM-3.9.so
}
{
   <insert_a_suppression_name_here>
   Memcheck:Leak
   match-leak-kinds: possible
   fun:_Znwm
   fun:_ZN4llvm4UsernwEmj
   fun:_ZN4llvm11ConstantInt3getERNS_11LLVMContextERKNS_5APIntE
   fun:_ZN4llvm29ConstantFoldBinaryInstructionEjPNS_8ConstantES1_
   fun:_ZN4llvm12ConstantExpr3getEjPNS_8ConstantES2_jPNS_4TypeE
   fun:_ZN4llvm29ConstantFoldBinaryInstructionEjPNS_8ConstantES1_
   fun:_ZN4llvm12ConstantExpr3getEjPNS_8ConstantES2_jPNS_4TypeE
   obj:/usr/lib/libLLVM-3.9.so
   obj:/usr/lib/libLLVM-3.9.so
   obj:/usr/lib/libLLVM-3.9.so
   obj:/usr/lib/libLLVM-3.9.so
   obj:/usr/lib/libLLVM-3.9.so
}
{
   <insert_a_suppression_name_here>
   Memcheck:Leak
   match-leak-kinds: possible
   fun:_Znwm
   fun:_ZN4llvm4UsernwEmj
   fun:_ZN4llvm22ConstantDataSequential7getImplENS_9StringRefEPNS_4TypeE
   fun:_ZN4llvm18ConstantDataVector3getERNS_11LLVMContextENS_8ArrayRefIjEE
   fun:_ZN4llvm14ConstantVector7getImplENS_8ArrayRefIPNS_8ConstantEEE
   fun:_ZN4llvm14ConstantVector3getENS_8ArrayRefIPNS_8ConstantEEE
   fun:_ZN4llvm29ConstantFoldBinaryInstructionEjPNS_8ConstantES1_
   fun:_ZN4llvm12ConstantExpr3getEjPNS_8ConstantES2_jPNS_4TypeE
   obj:/usr/lib/libLLVM-3.9.so
   obj:/usr/lib/libLLVM-3.9.so
   obj:/usr/lib/libLLVM-3.9.so
   obj:/usr/lib/libLLVM-3.9.so
}
{
   <insert_a_suppression_name_here>
   Memcheck:Leak
   match-leak-kinds: possible
   fun:_Znwm
   fun:_ZN4llvm4UsernwEmj
   fun:_ZN4llvm11ConstantInt3getERNS_11LLVMContextERKNS_5APIntE
   fun:_ZN4llvm11ConstantInt3getEPNS_11IntegerTypeEmb
   fun:_ZN4llvm11ConstantInt3getEPNS_4TypeEmb
   fun:_ZN4llvm3GVN17propagateEqualityEPNS_5ValueES2_RKNS_14BasicBlockEdgeEb
   fun:_ZN4llvm3GVN18processInstructionEPNS_11InstructionE
   fun:_ZN4llvm3GVN12processBlockEPNS_10BasicBlockE
   fun:_ZN4llvm3GVN17iterateOnFunctionERNS_8FunctionE
   fun:_ZN4llvm3GVN7runImplERNS_8FunctionERNS_15AssumptionCacheERNS_13DominatorTreeERKNS_17TargetLibraryInfoERNS_9AAResultsEPNS_23MemoryDependenceResultsE
   obj:/usr/lib/libLLVM-3.9.so
   fun:_ZN4llvm13FPPassManager13runOnFunctionERNS_8FunctionE
}
{
   <insert_a_suppression_name_here>
   Memcheck:Leak
   match-leak-kinds: possible
   fun:_Znwm
   fun:_ZN4llvm16AttributeSetNode3getERNS_11LLVMContextENS_8ArrayRefINS_9AttributeEEE
   fun:_ZN4llvm12AttributeSet3getERNS_11LLVMContextENS_8ArrayRefISt4pairIjNS_9AttributeEEEE
   fun:_ZN4llvm12AttributeSet3getERNS_11LLVMContextEjRKNS_11AttrBuilderE
   fun:_ZNK4llvm12AttributeSet13addAttributesERNS_11LLVMContextEjS0_
   fun:_ZN4llvm8Function13addAttributesEjNS_12AttributeSetE
   fun:LLVMAddTargetDependentFunctionAttr
   obj:*
   obj:*
   obj:*
   obj:*
   obj:*
}
{
   <insert_a_suppression_name_here>
   Memcheck:Leak
   match-leak-kinds: possible
   fun:_Znwm
   fun:_ZN4llvm12AttributeSet7getImplERNS_11LLVMContextENS_8ArrayRefISt4pairIjPNS_16AttributeSetNodeEEEE
   fun:_ZN4llvm12AttributeSet3getERNS_11LLVMContextENS_8ArrayRefISt4pairIjNS_9AttributeEEEE
   fun:_ZN4llvm12AttributeSet3getERNS_11LLVMContextEjRKNS_11AttrBuilderE
   fun:_ZNK4llvm12AttributeSet13addAttributesERNS_11LLVMContextEjS0_
   fun:_ZN4llvm8Function13addAttributesEjNS_12AttributeSetE
   fun:LLVMAddTargetDependentFunctionAttr
   obj:*
   obj:*
   obj:*
   obj:*
   obj:*
}
{
   <insert_a_suppression_name_here>
   Memcheck:Leak
   match-leak-kinds: possible
   fun:_Znwm
   fun:_ZN4llvm4UsernwEmj
   fun:_ZN4llvm11ConstantInt3getERNS_11LLVMContextERKNS_5APIntE
   fun:_ZN4llvm27ConstantFoldCastInstructionEjPNS_8ConstantEPNS_4TypeE
   obj:/usr/lib/libLLVM-3.9.so
   fun:_ZN4llvm15ScalarEvolution17getZeroExtendExprEPKNS_4SCEVEPNS_4TypeE
   fun:_ZN4llvm15ScalarEvolution17getZeroExtendExprEPKNS_4SCEVEPNS_4TypeE
   fun:_ZN4llvm15ScalarEvolution11getUDivExprEPKNS_4SCEVES3_
   fun:_ZN4llvm15ScalarEvolution16getUDivExactExprEPKNS_4SCEVES3_
   fun:_ZN4llvm15ScalarEvolution10createSCEVEPNS_5ValueE
   fun:_ZN4llvm15ScalarEvolution7getSCEVEPNS_5ValueE
   fun:_ZN4llvm7IVUsers12AddUsersImplEPNS_11InstructionERNS_15SmallPtrSetImplIPNS_4LoopEEE
}
{
   <insert_a_suppression_name_here>
   Memcheck:Leak
   match-leak-kinds: possible
   fun:_Znwm
   fun:_ZN4llvm4UsernwEmj
   fun:_ZN4llvm11ConstantInt3getERNS_11LLVMContextERKNS_5APIntE
   fun:_ZN4llvm11ConstantInt3getEPNS_11IntegerTypeEmb
   fun:_ZN4llvm11ConstantInt3getEPNS_4TypeEmb
   fun:_ZN4llvm8Constant12getNullValueEPNS_4TypeE
   fun:_ZN4llvm27ConstantFoldCastInstructionEjPNS_8ConstantEPNS_4TypeE
   obj:/usr/lib/libLLVM-3.9.so
   fun:_ZN4llvm15ScalarEvolution17getZeroExtendExprEPKNS_4SCEVEPNS_4TypeE
   obj:/usr/lib/libLLVM-3.9.so
   fun:_ZN4llvm15ScalarEvolution17getZeroExtendExprEPKNS_4SCEVEPNS_4TypeE
   fun:_ZN4llvm15ScalarEvolution11getUDivExprEPKNS_4SCEVES3_
}
{
   <insert_a_suppression_name_here>
   Memcheck:Leak
   match-leak-kinds: possible
   fun:_Znwm
   fun:_ZN4llvm4UsernwEmj
   fun:_ZN4llvm11ConstantInt3getERNS_11LLVMContextERKNS_5APIntE
   fun:_ZN4llvm29ConstantFoldBinaryInstructionEjPNS_8ConstantES1_
   fun:_ZN4llvm12ConstantExpr3getEjPNS_8ConstantES2_jPNS_4TypeE
   fun:_ZN4llvm15ScalarEvolution10getNotSCEVEPKNS_4SCEVE
   fun:_ZN4llvm15ScalarEvolution21isImpliedCondOperandsENS_7CmpInst9PredicateEPKNS_4SCEVES5_S5_S5_
   fun:_ZN4llvm15ScalarEvolution13isImpliedCondENS_7CmpInst9PredicateEPKNS_4SCEVES5_S2_S5_S5_
   fun:_ZN4llvm15ScalarEvolution13isImpliedCondENS_7CmpInst9PredicateEPKNS_4SCEVES5_PNS_5ValueEb
   fun:_ZN4llvm15ScalarEvolution27isLoopBackedgeGuardedByCondEPKNS_4LoopENS_7CmpInst9PredicateEPKNS_4SCEVES8_
   fun:_ZN4llvm15ScalarEvolution17getZeroExtendExprEPKNS_4SCEVEPNS_4TypeE
   fun:_ZN4llvm15ScalarEvolution10createSCEVEPNS_5ValueE
}
{
   <insert_a_suppression_name_here>
   Memcheck:Leak
   match-leak-kinds: possible
   fun:_Znwm
   fun:_ZN4llvm4UsernwEmj
   fun:_ZN4llvm11ConstantInt3getERNS_11LLVMContextERKNS_5APIntE
   fun:_ZN4llvm27ConstantFoldCastInstructionEjPNS_8ConstantEPNS_4TypeE
   obj:/usr/lib/libLLVM-3.9.so
   fun:_ZN4llvm15ScalarEvolution17getZeroExtendExprEPKNS_4SCEVEPNS_4TypeE
   fun:_ZN4llvm15ScalarEvolution17getZeroExtendExprEPKNS_4SCEVEPNS_4TypeE
   fun:_ZN4llvm15ScalarEvolution11getUDivExprEPKNS_4SCEVES3_
   fun:_ZN4llvm15ScalarEvolution16getUDivExactExprEPKNS_4SCEVES3_
   fun:_ZN4llvm15ScalarEvolution10createSCEVEPNS_5ValueE
   fun:_ZN4llvm15ScalarEvolution7getSCEVEPNS_5ValueE
   fun:_ZN4llvm7IVUsers12AddUsersImplEPNS_11InstructionERNS_15SmallPtrSetImplIPNS_4LoopEEE
}
{
   <insert_a_suppression_name_here>
   Memcheck:Leak
   match-leak-kinds: possible
   fun:_Znwm
   fun:_ZN4llvm4UsernwEmj
   fun:_ZN4llvm11ConstantInt3getERNS_11LLVMContextERKNS_5APIntE
   fun:_ZN4llvm11ConstantInt3getEPNS_11IntegerTypeEmb
   fun:_ZN4llvm11ConstantInt3getEPNS_4TypeEmb
   fun:_ZN4llvm8Constant12getNullValueEPNS_4TypeE
   fun:_ZN4llvm27ConstantFoldCastInstructionEjPNS_8ConstantEPNS_4TypeE
   obj:/usr/lib/libLLVM-3.9.so
   fun:_ZN4llvm15ScalarEvolution17getZeroExtendExprEPKNS_4SCEVEPNS_4TypeE
   obj:/usr/lib/libLLVM-3.9.so
   fun:_ZN4llvm15ScalarEvolution17getZeroExtendExprEPKNS_4SCEVEPNS_4TypeE
   fun:_ZN4llvm15ScalarEvolution11getUDivExprEPKNS_4SCEVES3_
}
{
   <insert_a_suppression_name_here>
   Memcheck:Leak
   match-leak-kinds: possible
   fun:_Znwm
   fun:_ZN4llvm4UsernwEmj
   fun:_ZN4llvm11ConstantInt3getERNS_11LLVMContextERKNS_5APIntE
   fun:_ZN4llvm27ConstantFoldCastInstructionEjPNS_8ConstantEPNS_4TypeE
   obj:/usr/lib/libLLVM-3.9.so
   fun:_ZN4llvm15ScalarEvolution17getSignExtendExprEPKNS_4SCEVEPNS_4TypeE
   obj:/usr/lib/libLLVM-3.9.so
   obj:/usr/lib/libLLVM-3.9.so
   fun:_ZN4llvm13LPPassManager13runOnFunctionERNS_8FunctionE
   fun:_ZN4llvm13FPPassManager13runOnFunctionERNS_8FunctionE
   fun:_ZN4llvm13FPPassManager11runOnModuleERNS_6ModuleE
   fun:_ZN4llvm6legacy15PassManagerImpl3runERNS_6ModuleE
}
{
   <insert_a_suppression_name_here>
   Memcheck:Leak
   match-leak-kinds: possible
   fun:_Znwm
   fun:_ZN4llvm4UsernwEmj
   fun:_ZN4llvm11ConstantInt3getERNS_11LLVMContextERKNS_5APIntE
   fun:_ZN4llvm27ConstantFoldCastInstructionEjPNS_8ConstantEPNS_4TypeE
   obj:/usr/lib/libLLVM-3.9.so
   fun:_ZN4llvm15ScalarEvolution17getZeroExtendExprEPKNS_4SCEVEPNS_4TypeE
   fun:_ZN4llvm15ScalarEvolution17getZeroExtendExprEPKNS_4SCEVEPNS_4TypeE
   fun:_ZN4llvm12SCEVExpander25getAddRecExprPHILiterallyEPKNS_14SCEVAddRecExprEPKNS_4LoopEPNS_4TypeES8_RS8_Rb
   fun:_ZN4llvm12SCEVExpander25expandAddRecExprLiterallyEPKNS_14SCEVAddRecExprE
   fun:_ZN4llvm12SCEVExpander6expandEPKNS_4SCEVE
   fun:_ZN4llvm12SCEVExpander13expandCodeForEPKNS_4SCEVEPNS_4TypeE
   obj:/usr/lib/libLLVM-3.9.so
}
{
   <insert_a_suppression_name_here>
   Memcheck:Leak
   match-leak-kinds: possible
   fun:_Znwm
   fun:_ZN4llvm4UsernwEmj
   fun:_ZN4llvm11ConstantInt3getERNS_11LLVMContextERKNS_5APIntE
   fun:_ZN4llvm27ConstantFoldCastInstructionEjPNS_8ConstantEPNS_4TypeE
   obj:/usr/lib/libLLVM-3.9.so
   fun:_ZN4llvm15ScalarEvolution17getZeroExtendExprEPKNS_4SCEVEPNS_4TypeE
   fun:_ZN4llvm15ScalarEvolution19getRangeForAffineAREPKNS_4SCEVES3_S3_j
   fun:_ZN4llvm15ScalarEvolution8getRangeEPKNS_4SCEVENS0_13RangeSignHintE
   obj:/usr/lib/libLLVM-3.9.so
   obj:/usr/lib/libLLVM-3.9.so
   obj:/usr/lib/libLLVM-3.9.so
   fun:_ZN4llvm12SCEVExpander25getAddRecExprPHILiterallyEPKNS_14SCEVAddRecExprEPKNS_4LoopEPNS_4TypeES8_RS8_Rb
}
{
   <insert_a_suppression_name_here>
   Memcheck:Leak
   match-leak-kinds: possible
   fun:_Znwm
   fun:_ZN4llvm4UsernwEmj
   fun:_ZN4llvm11ConstantInt3getERNS_11LLVMContextERKNS_5APIntE
   fun:_ZN4llvm12SelectionDAG11getConstantERKNS_5APIntERKNS_5SDLocENS_3EVTEbb
   fun:_ZN4llvm12SelectionDAG11getConstantEmRKNS_5SDLocENS_3EVTEbb
   obj:/usr/lib/libLLVM-3.9.so
   obj:/usr/lib/libLLVM-3.9.so
   fun:_ZN4llvm16SelectionDAGISel16SelectCodeCommonEPNS_6SDNodeEPKhj
   obj:/usr/lib/libLLVM-3.9.so
   fun:_ZN4llvm16SelectionDAGISel22DoInstructionSelectionEv
   fun:_ZN4llvm16SelectionDAGISel17CodeGenAndEmitDAGEv
   fun:_ZN4llvm16SelectionDAGISel20SelectAllBasicBlocksERKNS_8FunctionE
}
{
   <insert_a_suppression_name_here>
   Memcheck:Leak
   match-leak-kinds: possible
   fun:_Znwm
   fun:_ZN4llvm4UsernwEmj
   fun:_ZN4llvm11ConstantInt3getERNS_11LLVMContextERKNS_5APIntE
   fun:_ZN4llvm12SelectionDAG11getConstantERKNS_5APIntERKNS_5SDLocENS_3EVTEbb
   fun:_ZN4llvm12SelectionDAG11getConstantEmRKNS_5SDLocENS_3EVTEbb
   fun:_ZNK4llvm17X86TargetLowering10LowerSETCCENS_7SDValueERNS_12SelectionDAGE
   fun:_ZNK4llvm17X86TargetLowering11LowerBRCONDENS_7SDValueERNS_12SelectionDAGE
   fun:_ZNK4llvm17X86TargetLowering14LowerOperationENS_7SDValueERNS_12SelectionDAGE
   obj:/usr/lib/libLLVM-3.9.so
   fun:_ZN4llvm12SelectionDAG8LegalizeEv
   fun:_ZN4llvm16SelectionDAGISel17CodeGenAndEmitDAGEv
   fun:_ZN4llvm16SelectionDAGISel20SelectAllBasicBlocksERKNS_8FunctionE
}
{
   <insert_a_suppression_name_here>
   Memcheck:Leak
   match-leak-kinds: possible
   fun:_Znwm
   fun:_ZN4llvm4UsernwEmj
   fun:_ZN4llvm11ConstantInt3getERNS_11LLVMContextERKNS_5APIntE
   fun:_ZN4llvm12SelectionDAG11getConstantERKNS_5APIntERKNS_5SDLocENS_3EVTEbb
   fun:_ZN4llvm12SelectionDAG11getConstantEmRKNS_5SDLocENS_3EVTEbb
   fun:_ZNK4llvm17X86TargetLowering11LowerBRCONDENS_7SDValueERNS_12SelectionDAGE
   fun:_ZNK4llvm17X86TargetLowering14LowerOperationENS_7SDValueERNS_12SelectionDAGE
   obj:/usr/lib/libLLVM-3.9.so
   fun:_ZN4llvm12SelectionDAG8LegalizeEv
   fun:_ZN4llvm16SelectionDAGISel17CodeGenAndEmitDAGEv
   fun:_ZN4llvm16SelectionDAGISel20SelectAllBasicBlocksERKNS_8FunctionE
   fun:_ZN4llvm16SelectionDAGISel20runOnMachineFunctionERNS_15MachineFunctionE
}
{
   <insert_a_suppression_name_here>
   Memcheck:Leak
   match-leak-kinds: possible
   fun:_Znwm
   fun:_ZN4llvm4UsernwEmj
   fun:_ZN4llvm11ConstantInt3getERNS_11LLVMContextERKNS_5APIntE
   fun:_ZN4llvm12SelectionDAG11getConstantERKNS_5APIntERKNS_5SDLocENS_3EVTEbb
   fun:_ZN4llvm12SelectionDAG11getConstantEmRKNS_5SDLocENS_3EVTEbb
   obj:/usr/lib/libLLVM-3.9.so
   obj:/usr/lib/libLLVM-3.9.so
   obj:/usr/lib/libLLVM-3.9.so
   fun:_ZNK4llvm17X86TargetLowering14LowerOperationENS_7SDValueERNS_12SelectionDAGE
   obj:/usr/lib/libLLVM-3.9.so
   fun:_ZN4llvm12SelectionDAG8LegalizeEv
   fun:_ZN4llvm16SelectionDAGISel17CodeGenAndEmitDAGEv
}
{
   <insert_a_suppression_name_here>
   Memcheck:Leak
   match-leak-kinds: possible
   fun:_Znwm
   fun:_ZN4llvm4UsernwEmj
   fun:_ZN4llvm11ConstantInt3getERNS_11LLVMContextERKNS_5APIntE
   fun:_ZN4llvm12SelectionDAG11getConstantERKNS_5APIntERKNS_5SDLocENS_3EVTEbb
   obj:/usr/lib/libLLVM-3.9.so
   obj:/usr/lib/libLLVM-3.9.so
   obj:/usr/lib/libLLVM-3.9.so
   fun:_ZNK4llvm17X86TargetLowering14LowerOperationENS_7SDValueERNS_12SelectionDAGE
   obj:/usr/lib/libLLVM-3.9.so
   fun:_ZN4llvm12SelectionDAG8LegalizeEv
   fun:_ZN4llvm16SelectionDAGISel17CodeGenAndEmitDAGEv
   fun:_ZN4llvm16SelectionDAGISel20SelectAllBasicBlocksERKNS_8FunctionE
}
{
   <insert_a_suppression_name_here>
   Memcheck:Leak
   match-leak-kinds: possible
   fun:_Znwm
   fun:_ZN4llvm4UsernwEmj
   fun:_ZN4llvm11ConstantInt3getERNS_11LLVMContextERKNS_5APIntE
   fun:_ZN4llvm12SelectionDAG11getConstantERKNS_5APIntERKNS_5SDLocENS_3EVTEbb
   fun:_ZN4llvm12SelectionDAG11getConstantEmRKNS_5SDLocENS_3EVTEbb
   obj:/usr/lib/libLLVM-3.9.so
   obj:/usr/lib/libLLVM-3.9.so
   obj:/usr/lib/libLLVM-3.9.so
   fun:_ZNK4llvm17X86TargetLowering14LowerOperationENS_7SDValueERNS_12SelectionDAGE
   obj:/usr/lib/libLLVM-3.9.so
   fun:_ZN4llvm12SelectionDAG8LegalizeEv
   fun:_ZN4llvm16SelectionDAGISel17CodeGenAndEmitDAGEv
}
{
   <insert_a_suppression_name_here>
   Memcheck:Leak
   match-leak-kinds: possible
   fun:_Znwm
   fun:_ZN4llvm4UsernwEmj
   fun:_ZN4llvm22ConstantDataSequential7getImplENS_9StringRefEPNS_4TypeE
   fun:_ZN4llvm18ConstantDataVector5getFPERNS_11LLVMContextENS_8ArrayRefIjEE
   fun:_ZN4llvm18ConstantDataVector8getSplatEjPNS_8ConstantE
   fun:_ZN4llvm14ConstantVector8getSplatEjPNS_8ConstantE
   fun:_ZN4llvm10ConstantFP15getNegativeZeroEPNS_4TypeE
   fun:_ZN4llvm12ConstantExpr7getFNegEPNS_8ConstantE
   obj:/usr/lib/libLLVM-3.9.so
   obj:/usr/lib/libLLVM-3.9.so
   obj:/usr/lib/libLLVM-3.9.so
   fun:_ZN4llvm24InstructionCombiningPass13runOnFunctionERNS_8FunctionE
}
{
   <insert_a_suppression_name_here>
   Memcheck:Leak
   match-leak-kinds: possible
   fun:_Znwm
   fun:_ZN4llvm4UsernwEmj
   fun:_ZN4llvm11ConstantInt3getERNS_11LLVMContextERKNS_5APIntE
   fun:_ZN4llvm12SelectionDAG11getConstantERKNS_5APIntERKNS_5SDLocENS_3EVTEbb
   fun:_ZN4llvm12SelectionDAG11getConstantEmRKNS_5SDLocENS_3EVTEbb
   fun:_ZN4llvm16SelectionDAGISel16SelectCodeCommonEPNS_6SDNodeEPKhj
   obj:/usr/lib/libLLVM-3.9.so
   fun:_ZN4llvm16SelectionDAGISel22DoInstructionSelectionEv
   fun:_ZN4llvm16SelectionDAGISel17CodeGenAndEmitDAGEv
   fun:_ZN4llvm16SelectionDAGISel20SelectAllBasicBlocksERKNS_8FunctionE
   fun:_ZN4llvm16SelectionDAGISel20runOnMachineFunctionERNS_15MachineFunctionE
   obj:/usr/lib/libLLVM-3.9.so
}
{
   <insert_a_suppression_name_here>
   Memcheck:Leak
   match-leak-kinds: possible
   fun:_Znwm
   fun:_ZN4llvm4UsernwEmj
   fun:_ZN4llvm22ConstantDataSequential7getImplENS_9StringRefEPNS_4TypeE
   fun:_ZN4llvm18ConstantDataVector3getERNS_11LLVMContextENS_8ArrayRefIjEE
   fun:_ZN4llvm14ConstantVector7getImplENS_8ArrayRefIPNS_8ConstantEEE
   fun:_ZN4llvm14ConstantVector3getENS_8ArrayRefIPNS_8ConstantEEE
   fun:LLVMConstVector
   obj:*
   obj:*
   obj:*
   obj:*
   obj:*
}
{
   <insert_a_suppression_name_here>
   Memcheck:Leak
   match-leak-kinds: possible
   fun:_Znwm
   fun:_ZN4llvm4UsernwEmj
   fun:_ZN4llvm22ConstantDataSequential7getImplENS_9StringRefEPNS_4TypeE
   fun:_ZN4llvm18ConstantDataVector3getERNS_11LLVMContextENS_8ArrayRefIjEE
   fun:_ZN4llvm14ConstantVector7getImplENS_8ArrayRefIPNS_8ConstantEEE
   fun:_ZN4llvm14ConstantVector3getENS_8ArrayRefIPNS_8ConstantEEE
   fun:LLVMConstVector
   obj:*
   obj:*
   obj:*
   obj:*
   obj:*
}
{
   <insert_a_suppression_name_here>
   Memcheck:Leak
   match-leak-kinds: possible
   fun:_Znwm
   fun:_ZN4llvm4UsernwEmj
   fun:_ZN4llvm22ConstantDataSequential7getImplENS_9StringRefEPNS_4TypeE
   fun:_ZN4llvm18ConstantDataVector5getFPERNS_11LLVMContextENS_8ArrayRefIjEE
   fun:_ZN4llvm14ConstantVector7getImplENS_8ArrayRefIPNS_8ConstantEEE
   fun:_ZN4llvm14ConstantVector3getENS_8ArrayRefIPNS_8ConstantEEE
   fun:LLVMConstVector
   obj:*
   obj:*
   obj:*
   obj:*
   obj:*
}
{
   <insert_a_suppression_name_here>
   Memcheck:Leak
   match-leak-kinds: possible
   fun:_Znwm
   fun:_ZN4llvm4UsernwEmj
   fun:_ZN4llvm22ConstantDataSequential7getImplENS_9StringRefEPNS_4TypeE
   fun:_ZN4llvm18ConstantDataVector3getERNS_11LLVMContextENS_8ArrayRefIjEE
   fun:_ZN4llvm14ConstantVector7getImplENS_8ArrayRefIPNS_8ConstantEEE
   fun:_ZN4llvm14ConstantVector3getENS_8ArrayRefIPNS_8ConstantEEE
   fun:_ZN4llvm29ConstantFoldBinaryInstructionEjPNS_8ConstantES1_
   fun:_ZN4llvm12ConstantExpr3getEjPNS_8ConstantES2_jPNS_4TypeE
   fun:LLVMBuildShl
   obj:*
   obj:*
   obj:*
}
{
   <insert_a_suppression_name_here>
   Memcheck:Leak
   match-leak-kinds: possible
   fun:_Znwm
   fun:_ZN4llvm4UsernwEmj
   fun:_ZN4llvm22ConstantDataSequential7getImplENS_9StringRefEPNS_4TypeE
   fun:_ZN4llvm18ConstantDataVector3getERNS_11LLVMContextENS_8ArrayRefIjEE
   fun:_ZN4llvm14ConstantVector7getImplENS_8ArrayRefIPNS_8ConstantEEE
   fun:_ZN4llvm14ConstantVector3getENS_8ArrayRefIPNS_8ConstantEEE
   fun:_ZN4llvm29ConstantFoldBinaryInstructionEjPNS_8ConstantES1_
   fun:_ZN4llvm12ConstantExpr3getEjPNS_8ConstantES2_jPNS_4TypeE
   fun:LLVMBuildShl
   obj:*
   obj:*
   obj:*
}
{
   <insert_a_suppression_name_here>
   Memcheck:Leak
   match-leak-kinds: possible
   fun:_Znwm
   fun:_ZN4llvm4UsernwEmj
   fun:_ZN4llvm11ConstantInt3getERNS_11LLVMContextERKNS_5APIntE
   fun:_ZN4llvm11ConstantInt3getEPNS_11IntegerTypeEmb
   obj:*
   obj:*
   obj:*
   obj:*
   obj:*
   obj:*
   obj:*
   obj:*
}
{
   <insert_a_suppression_name_here>
   Memcheck:Leak
   match-leak-kinds: possible
   fun:_Znwm
   fun:_ZN4llvm4UsernwEmj
   fun:_ZN4llvm22ConstantDataSequential7getImplENS_9StringRefEPNS_4TypeE
   fun:_ZN4llvm18ConstantDataVector3getERNS_11LLVMContextENS_8ArrayRefIjEE
   fun:_ZN4llvm14ConstantVector7getImplENS_8ArrayRefIPNS_8ConstantEEE
   fun:_ZN4llvm14ConstantVector3getENS_8ArrayRefIPNS_8ConstantEEE
   fun:LLVMConstVector
   obj:*
   obj:*
   obj:*
   obj:*
   obj:*
}
{
   <insert_a_suppression_name_here>
   Memcheck:Leak
   match-leak-kinds: possible
   fun:_Znwm
   fun:_ZN4llvm4UsernwEmj
   fun:_ZN4llvm11ConstantInt3getERNS_11LLVMContextERKNS_5APIntE
   fun:_ZN4llvm29ConstantFoldBinaryInstructionEjPNS_8ConstantES1_
   fun:_ZN4llvm12ConstantExpr3getEjPNS_8ConstantES2_jPNS_4TypeE
   fun:_ZN4llvm29ConstantFoldBinaryInstructionEjPNS_8ConstantES1_
   fun:_ZN4llvm12ConstantExpr3getEjPNS_8ConstantES2_jPNS_4TypeE
   fun:_ZN4llvm28ConstantFoldBinaryOpOperandsEjPNS_8ConstantES1_RKNS_10DataLayoutE
   obj:/usr/lib/libLLVM-3.9.so
   obj:/usr/lib/libLLVM-3.9.so
   obj:/usr/lib/libLLVM-3.9.so
   fun:_ZN4llvm13SimplifyBinOpEjPNS_5ValueES1_RKNS_10DataLayoutEPKNS_17TargetLibraryInfoEPKNS_13DominatorTreeEPNS_15AssumptionCacheEPKNS_11InstructionE
}
{
   <insert_a_suppression_name_here>
   Memcheck:Leak
   match-leak-kinds: possible
   fun:_Znwm
   fun:_ZN4llvm4UsernwEmj
   fun:_ZN4llvm11ConstantInt3getERNS_11LLVMContextERKNS_5APIntE
   fun:_ZN4llvm15ScalarEvolution11getConstantERKNS_5APIntE
   fun:_ZN4llvm15ScalarEvolution25proveNoWrapByVaryingStartINS_18SCEVSignExtendExprEEEbPKNS_4SCEVES5_PKNS_4LoopE
   fun:_ZN4llvm15ScalarEvolution17getSignExtendExprEPKNS_4SCEVEPNS_4TypeE
   fun:_ZN4llvm15ScalarEvolution10createSCEVEPNS_5ValueE
   fun:_ZN4llvm15ScalarEvolution7getSCEVEPNS_5ValueE
   fun:_ZN4llvm7IVUsers12AddUsersImplEPNS_11InstructionERNS_15SmallPtrSetImplIPNS_4LoopEEE
   fun:_ZN4llvm7IVUsers12AddUsersImplEPNS_11InstructionERNS_15SmallPtrSetImplIPNS_4LoopEEE
   fun:_ZN4llvm7IVUsers21AddUsersIfInterestingEPNS_11InstructionE
   fun:_ZN4llvm7IVUsersC1EPNS_4LoopEPNS_15AssumptionCacheEPNS_8LoopInfoEPNS_13DominatorTreeEPNS_15ScalarEvolutionE
}
{
   <insert_a_suppression_name_here>
   Memcheck:Leak
   match-leak-kinds: possible
   fun:_Znwm
   fun:_ZN4llvm4UsernwEmj
   fun:_ZN4llvm11ConstantInt3getERNS_11LLVMContextERKNS_5APIntE
   fun:_ZN4llvm15ScalarEvolution10getMulExprERNS_15SmallVectorImplIPKNS_4SCEVEEENS2_11NoWrapFlagsE
   obj:/usr/lib/libLLVM-3.9.so
   fun:_ZN4llvm15ScalarEvolution10getMulExprERNS_15SmallVectorImplIPKNS_4SCEVEEENS2_11NoWrapFlagsE
   fun:_ZN4llvm15ScalarEvolution15getNegativeSCEVEPKNS_4SCEVENS1_11NoWrapFlagsE
   fun:_ZN4llvm15ScalarEvolution12getMinusSCEVEPKNS_4SCEVES3_NS1_11NoWrapFlagsE
   obj:/usr/lib/libLLVM-3.9.so
   obj:/usr/lib/libLLVM-3.9.so
   obj:/usr/lib/libLLVM-3.9.so
   fun:_ZN4llvm13LPPassManager13runOnFunctionERNS_8FunctionE
}
{
   <insert_a_suppression_name_here>
   Memcheck:Leak
   match-leak-kinds: possible
   fun:_Znwm
   fun:_ZN4llvm4UsernwEmj
   fun:_ZN4llvm11ConstantInt3getERNS_11LLVMContextERKNS_5APIntE
   fun:_ZN4llvm12SelectionDAG11getConstantERKNS_5APIntERKNS_5SDLocENS_3EVTEbb
   fun:_ZN4llvm12SelectionDAG11getConstantEmRKNS_5SDLocENS_3EVTEbb
   fun:_ZN4llvm19SelectionDAGBuilder18visitGetElementPtrERKNS_4UserE
   fun:_ZN4llvm19SelectionDAGBuilder5visitERKNS_11InstructionE
   fun:_ZN4llvm16SelectionDAGISel16SelectBasicBlockENS_14ilist_iteratorIKNS_11InstructionEEES4_Rb
   fun:_ZN4llvm16SelectionDAGISel20SelectAllBasicBlocksERKNS_8FunctionE
   fun:_ZN4llvm16SelectionDAGISel20runOnMachineFunctionERNS_15MachineFunctionE
   obj:/usr/lib/libLLVM-3.9.so
   fun:_ZN4llvm19MachineFunctionPass13runOnFunctionERNS_8FunctionE
}
{
   <insert_a_suppression_name_here>
   Memcheck:Leak
   match-leak-kinds: possible
   fun:_Znwm
   fun:_ZN4llvm4UsernwEmj
   fun:_ZN4llvm11ConstantInt3getERNS_11LLVMContextERKNS_5APIntE
   fun:_ZN4llvm12SelectionDAG11getConstantERKNS_5APIntERKNS_5SDLocENS_3EVTEbb
   fun:_ZN4llvm12SelectionDAG11getConstantEmRKNS_5SDLocENS_3EVTEbb
   obj:/usr/lib/libLLVM-3.9.so
   fun:_ZNK4llvm17X86TargetLowering17PerformDAGCombineEPNS_6SDNodeERNS_14TargetLowering15DAGCombinerInfoE
   obj:/usr/lib/libLLVM-3.9.so
   fun:_ZN4llvm12SelectionDAG7CombineENS_12CombineLevelERNS_9AAResultsENS_10CodeGenOpt5LevelE
   fun:_ZN4llvm16SelectionDAGISel17CodeGenAndEmitDAGEv
   fun:_ZN4llvm16SelectionDAGISel20SelectAllBasicBlocksERKNS_8FunctionE
   fun:_ZN4llvm16SelectionDAGISel20runOnMachineFunctionERNS_15MachineFunctionE
}
{
   <insert_a_suppression_name_here>
   Memcheck:Leak
   match-leak-kinds: possible
   fun:_Znwm
   fun:_ZN4llvm4UsernwEmj
   fun:_ZN4llvm11ConstantInt3getERNS_11LLVMContextERKNS_5APIntE
   fun:_ZN4llvm12SelectionDAG11getConstantERKNS_5APIntERKNS_5SDLocENS_3EVTEbb
   obj:/usr/lib/libLLVM-3.9.so
   fun:_ZNK4llvm17X86TargetLowering10LowerSETCCENS_7SDValueERNS_12SelectionDAGE
   fun:_ZNK4llvm17X86TargetLowering14LowerOperationENS_7SDValueERNS_12SelectionDAGE
   obj:/usr/lib/libLLVM-3.9.so
   fun:_ZN4llvm12SelectionDAG15LegalizeVectorsEv
   fun:_ZN4llvm16SelectionDAGISel17CodeGenAndEmitDAGEv
   fun:_ZN4llvm16SelectionDAGISel20SelectAllBasicBlocksERKNS_8FunctionE
   fun:_ZN4llvm16SelectionDAGISel20runOnMachineFunctionERNS_15MachineFunctionE
}
{
   <insert_a_suppression_name_here>
   Memcheck:Leak
   match-leak-kinds: possible
   fun:_Znwm
   fun:_ZN4llvm4UsernwEmj
   fun:_ZN4llvm22ConstantDataSequential7getImplENS_9StringRefEPNS_4TypeE
   fun:_ZN4llvm18ConstantDataVector3getERNS_11LLVMContextENS_8ArrayRefIjEE
   fun:_ZN4llvm14ConstantVector7getImplENS_8ArrayRefIPNS_8ConstantEEE
   fun:_ZN4llvm14ConstantVector3getENS_8ArrayRefIPNS_8ConstantEEE
   obj:/usr/lib/libLLVM-3.9.so
   obj:/usr/lib/libLLVM-3.9.so
   obj:/usr/lib/libLLVM-3.9.so
   fun:_ZN4llvm12SelectionDAG8LegalizeEv
   fun:_ZN4llvm16SelectionDAGISel17CodeGenAndEmitDAGEv
   fun:_ZN4llvm16SelectionDAGISel20SelectAllBasicBlocksERKNS_8FunctionE
}
{
   <insert_a_suppression_name_here>
   Memcheck:Leak
   match-leak-kinds: possible
   fun:_Znwm
   fun:_ZN4llvm4UsernwEmj
   fun:_ZN4llvm22ConstantDataSequential7getImplENS_9StringRefEPNS_4TypeE
   fun:_ZN4llvm18ConstantDataVector5getFPERNS_11LLVMContextENS_8ArrayRefIjEE
   fun:_ZN4llvm14ConstantVector7getImplENS_8ArrayRefIPNS_8ConstantEEE
   fun:_ZN4llvm14ConstantVector3getENS_8ArrayRefIPNS_8ConstantEEE
   fun:LLVMConstVector
   obj:*
   obj:*
   obj:*
   obj:*
   obj:*
}
{
   <insert_a_suppression_name_here>
   Memcheck:Leak
   match-leak-kinds: possible
   fun:_Znwm
   fun:_ZN4llvm4UsernwEmj
   fun:_ZN4llvm11ConstantInt3getERNS_11LLVMContextERKNS_5APIntE
   fun:_ZN4llvm11ConstantInt3getEPNS_11IntegerTypeEmb
   obj:*
   obj:*
   obj:*
   obj:*
   obj:*
   obj:*
   obj:*
   obj:*
}
{
   <insert_a_suppression_name_here>
   Memcheck:Leak
   match-leak-kinds: possible
   fun:_Znwm
   fun:_ZN4llvm4UsernwEmj
   fun:_ZN4llvm22ConstantDataSequential7getImplENS_9StringRefEPNS_4TypeE
   fun:_ZN4llvm18ConstantDataVector3getERNS_11LLVMContextENS_8ArrayRefIjEE
   fun:_ZN4llvm14ConstantVector7getImplENS_8ArrayRefIPNS_8ConstantEEE
   fun:_ZN4llvm14ConstantVector3getENS_8ArrayRefIPNS_8ConstantEEE
   fun:LLVMConstVector
   obj:*
   obj:*
   obj:*
   obj:*
   obj:*
}
{
   <insert_a_suppression_name_here>
   Memcheck:Leak
   match-leak-kinds: possible
   fun:_Znwm
   fun:_ZN4llvm4UsernwEmj
   fun:_ZN4llvm11ConstantInt3getERNS_11LLVMContextERKNS_5APIntE
   fun:_ZN4llvm11ConstantInt3getEPNS_11IntegerTypeEmb
   obj:*
   obj:*
   obj:*
   obj:*
   obj:*
   obj:*
   obj:*
   obj:*
}
{
   <insert_a_suppression_name_here>
   Memcheck:Leak
   match-leak-kinds: possible
   fun:_Znwm
   fun:_ZN4llvm4UsernwEmj
   fun:_ZN4llvm22ConstantDataSequential7getImplENS_9StringRefEPNS_4TypeE
   fun:_ZN4llvm18ConstantDataVector3getERNS_11LLVMContextENS_8ArrayRefIjEE
   fun:_ZN4llvm14ConstantVector7getImplENS_8ArrayRefIPNS_8ConstantEEE
   fun:_ZN4llvm14ConstantVector3getENS_8ArrayRefIPNS_8ConstantEEE
   fun:LLVMConstVector
   obj:*
   obj:*
   obj:*
   obj:*
   obj:*
}
{
   <insert_a_suppression_name_here>
   Memcheck:Leak
   match-leak-kinds: possible
   fun:_Znwm
   fun:_ZN4llvm4UsernwEmj
   fun:_ZN4llvm22ConstantDataSequential7getImplENS_9StringRefEPNS_4TypeE
   fun:_ZN4llvm18ConstantDataVector3getERNS_11LLVMContextENS_8ArrayRefIjEE
   fun:_ZN4llvm14ConstantVector7getImplENS_8ArrayRefIPNS_8ConstantEEE
   fun:_ZN4llvm14ConstantVector3getENS_8ArrayRefIPNS_8ConstantEEE
   fun:LLVMConstVector
   obj:*
   obj:*
   obj:*
   obj:*
   obj:*
}
{
   <insert_a_suppression_name_here>
   Memcheck:Leak
   match-leak-kinds: possible
   fun:_Znwm
   fun:_ZN4llvm4UsernwEmj
   fun:_ZN4llvm11ConstantInt3getERNS_11LLVMContextERKNS_5APIntE
   fun:_ZN4llvm11ConstantInt3getEPNS_11IntegerTypeEmb
   obj:*
   obj:*
   obj:*
   obj:*
   obj:*
   obj:*
   obj:*
   obj:*
}
{
   <insert_a_suppression_name_here>
   Memcheck:Leak
   match-leak-kinds: possible
   fun:_Znwm
   fun:_ZN4llvm4UsernwEmj
   fun:_ZN4llvm22ConstantDataSequential7getImplENS_9StringRefEPNS_4TypeE
   fun:_ZN4llvm18ConstantDataVector3getERNS_11LLVMContextENS_8ArrayRefIjEE
   fun:_ZN4llvm14ConstantVector7getImplENS_8ArrayRefIPNS_8ConstantEEE
   fun:_ZN4llvm14ConstantVector3getENS_8ArrayRefIPNS_8ConstantEEE
   fun:LLVMConstVector
   obj:*
   obj:*
   obj:*
   obj:*
   obj:*
}
{
   <insert_a_suppression_name_here>
   Memcheck:Leak
   match-leak-kinds: possible
   fun:_Znwm
   fun:_ZN4llvm4UsernwEmj
   fun:_ZN4llvm22ConstantDataSequential7getImplENS_9StringRefEPNS_4TypeE
   fun:_ZN4llvm18ConstantDataVector5getFPERNS_11LLVMContextENS_8ArrayRefIjEE
   fun:_ZN4llvm14ConstantVector7getImplENS_8ArrayRefIPNS_8ConstantEEE
   fun:_ZN4llvm14ConstantVector3getENS_8ArrayRefIPNS_8ConstantEEE
   fun:LLVMConstVector
   obj:*
   obj:*
   obj:*
   obj:*
   obj:*
}
{
   <insert_a_suppression_name_here>
   Memcheck:Leak
   match-leak-kinds: possible
   fun:_Znwm
   fun:_ZN4llvm4UsernwEmj
   fun:_ZN4llvm22ConstantDataSequential7getImplENS_9StringRefEPNS_4TypeE
   fun:_ZN4llvm18ConstantDataVector5getFPERNS_11LLVMContextENS_8ArrayRefIjEE
   fun:_ZN4llvm14ConstantVector7getImplENS_8ArrayRefIPNS_8ConstantEEE
   fun:_ZN4llvm14ConstantVector3getENS_8ArrayRefIPNS_8ConstantEEE
   fun:LLVMConstVector
   obj:*
   obj:*
   obj:*
   obj:*
   obj:*
}
{
   <insert_a_suppression_name_here>
   Memcheck:Leak
   match-leak-kinds: possible
   fun:_Znwm
   fun:_ZN4llvm4UsernwEmj
   fun:_ZN4llvm11ConstantInt3getERNS_11LLVMContextERKNS_5APIntE
   fun:_ZN4llvm29ConstantFoldBinaryInstructionEjPNS_8ConstantES1_
   fun:_ZN4llvm12ConstantExpr3getEjPNS_8ConstantES2_jPNS_4TypeE
   fun:_ZN4llvm29ConstantFoldBinaryInstructionEjPNS_8ConstantES1_
   fun:_ZN4llvm12ConstantExpr3getEjPNS_8ConstantES2_jPNS_4TypeE
   obj:/usr/lib/libLLVM-3.9.so
   obj:/usr/lib/libLLVM-3.9.so
   obj:/usr/lib/libLLVM-3.9.so
   fun:_ZN4llvm24InstructionCombiningPass13runOnFunctionERNS_8FunctionE
   fun:_ZN4llvm13FPPassManager13runOnFunctionERNS_8FunctionE
}
{
   <insert_a_suppression_name_here>
   Memcheck:Leak
   match-leak-kinds: possible
   fun:_Znwm
   fun:_ZN4llvm4UsernwEmj
   fun:_ZN4llvm22ConstantDataSequential7getImplENS_9StringRefEPNS_4TypeE
   fun:_ZN4llvm18ConstantDataVector3getERNS_11LLVMContextENS_8ArrayRefIjEE
   fun:_ZN4llvm14ConstantVector7getImplENS_8ArrayRefIPNS_8ConstantEEE
   fun:_ZN4llvm14ConstantVector3getENS_8ArrayRefIPNS_8ConstantEEE
   fun:_ZN4llvm29ConstantFoldBinaryInstructionEjPNS_8ConstantES1_
   fun:_ZN4llvm12ConstantExpr3getEjPNS_8ConstantES2_jPNS_4TypeE
   obj:/usr/lib/libLLVM-3.9.so
   obj:/usr/lib/libLLVM-3.9.so
   obj:/usr/lib/libLLVM-3.9.so
   fun:_ZN4llvm24InstructionCombiningPass13runOnFunctionERNS_8FunctionE
}
{
   <insert_a_suppression_name_here>
   Memcheck:Leak
   match-leak-kinds: possible
   fun:_Znwm
   fun:_ZN4llvm9Attribute3getERNS_11LLVMContextENS0_8AttrKindEm
   fun:_ZN4llvm12AttributeSet3getERNS_11LLVMContextEjNS_8ArrayRefINS_9Attribute8AttrKindEEE
   fun:_ZN4llvm9Intrinsic13getAttributesERNS_11LLVMContextENS0_2IDE
   fun:_ZN4llvm8FunctionC1EPNS_12FunctionTypeENS_11GlobalValue12LinkageTypesERKNS_5TwineEPNS_6ModuleE
   fun:LLVMAddFunction
   obj:*
   obj:*
   obj:*
   obj:*
   obj:*
   obj:*
}
{
   <insert_a_suppression_name_here>
   Memcheck:Leak
   match-leak-kinds: possible
   fun:malloc
   fun:_ZN4llvm22ConstantDataSequential7getImplENS_9StringRefEPNS_4TypeE
   fun:_ZN4llvm18ConstantDataVector5getFPERNS_11LLVMContextENS_8ArrayRefImEE
   fun:_ZN4llvm14ConstantVector7getImplENS_8ArrayRefIPNS_8ConstantEEE
   fun:_ZN4llvm14ConstantVector3getENS_8ArrayRefIPNS_8ConstantEEE
   fun:LLVMConstVector
   obj:*
   obj:*
   obj:*
   obj:*
   obj:*
   obj:*
}
{
   <insert_a_suppression_name_here>
   Memcheck:Leak
   match-leak-kinds: possible
   fun:malloc
   fun:_ZN4llvm22ConstantDataSequential7getImplENS_9StringRefEPNS_4TypeE
   fun:_ZN4llvm18ConstantDataVector3getERNS_11LLVMContextENS_8ArrayRefImEE
   fun:_ZN4llvm14ConstantVector7getImplENS_8ArrayRefIPNS_8ConstantEEE
   fun:_ZN4llvm14ConstantVector3getENS_8ArrayRefIPNS_8ConstantEEE
   fun:LLVMConstVector
   obj:*
   obj:*
   obj:*
   obj:*
   obj:*
   obj:*
}
{
   <insert_a_suppression_name_here>
   Memcheck:Leak
   match-leak-kinds: possible
   fun:malloc
   fun:_ZN4llvm22ConstantDataSequential7getImplENS_9StringRefEPNS_4TypeE
   fun:_ZN4llvm18ConstantDataVector3getERNS_11LLVMContextENS_8ArrayRefIjEE
   fun:_ZN4llvm14ConstantVector7getImplENS_8ArrayRefIPNS_8ConstantEEE
   fun:_ZN4llvm14ConstantVector3getENS_8ArrayRefIPNS_8ConstantEEE
   fun:LLVMConstVector
   obj:*
   obj:*
   obj:*
   obj:*
   obj:*
   obj:*
}
{
   <insert_a_suppression_name_here>
   Memcheck:Leak
   match-leak-kinds: possible
   fun:malloc
   fun:_ZN4llvm22ConstantDataSequential7getImplENS_9StringRefEPNS_4TypeE
   fun:_ZN4llvm18ConstantDataVector3getERNS_11LLVMContextENS_8ArrayRefIjEE
   fun:_ZN4llvm14ConstantVector7getImplENS_8ArrayRefIPNS_8ConstantEEE
   fun:_ZN4llvm14ConstantVector3getENS_8ArrayRefIPNS_8ConstantEEE
   fun:LLVMConstVector
   obj:*
   obj:*
   obj:*
   obj:*
   obj:*
   obj:*
}
{
   <insert_a_suppression_name_here>
   Memcheck:Leak
   match-leak-kinds: possible
   fun:malloc
   obj:*
   obj:*
   obj:*
   obj:*
   obj:*
   obj:*
   obj:*
   obj:*
   obj:*
   obj:/usr/lib/libGLX_mesa.so.0.0.0
   obj:/usr/lib/libGLX_mesa.so.0.0.0
}
{
   <insert_a_suppression_name_here>
   Memcheck:Leak
   match-leak-kinds: possible
   fun:calloc
   obj:*
   obj:*
   obj:*
   obj:*
   obj:*
   obj:*
   obj:*
   obj:*
   obj:*
   obj:*
   obj:/usr/lib/libGLX_mesa.so.0.0.0
}
{
   <insert_a_suppression_name_here>
   Memcheck:Leak
   match-leak-kinds: possible
   fun:calloc
   obj:*
   obj:*
   obj:*
   obj:*
   obj:*
   obj:*
   obj:*
   obj:*
   obj:*
   obj:*
   obj:/usr/lib/libGLX_mesa.so.0.0.0
}
{
   <insert_a_suppression_name_here>
   Memcheck:Leak
   match-leak-kinds: possible
   fun:calloc
   obj:*
   obj:*
   obj:*
   obj:*
   obj:*
   obj:*
   obj:*
   obj:/usr/lib/libGLX_mesa.so.0.0.0
   obj:/usr/lib/libGLX_mesa.so.0.0.0
   obj:/usr/lib/libGLX_mesa.so.0.0.0
   fun:glXCreateContext
}
{
   <insert_a_suppression_name_here>
   Memcheck:Leak
   match-leak-kinds: possible
   fun:_Znwm
   fun:_ZN4llvm4UsernwEmj
   fun:_ZN4llvm10ConstantFP3getERNS_11LLVMContextERKNS_7APFloatE
   fun:_ZN4llvm10ConstantFP3getEPNS_4TypeEd
   obj:*
   obj:*
   obj:*
   obj:*
   obj:*
   obj:*
   obj:*
   obj:*
}
{
   <insert_a_suppression_name_here>
   Memcheck:Leak
   match-leak-kinds: possible
   fun:_Znwm
   fun:_ZN4llvm4UsernwEmj
   fun:_ZN4llvm10ConstantFP3getERNS_11LLVMContextERKNS_7APFloatE
   fun:_ZN4llvm10ConstantFP3getEPNS_4TypeEd
   obj:*
   obj:*
   obj:*
   obj:*
   obj:*
   obj:*
   obj:*
   obj:*
}
{
   <insert_a_suppression_name_here>
   Memcheck:Leak
   match-leak-kinds: possible
   fun:_Znwm
   fun:_ZN4llvm4UsernwEmj
   fun:_ZN4llvm10ConstantFP3getERNS_11LLVMContextERKNS_7APFloatE
   fun:_ZN4llvm10ConstantFP3getEPNS_4TypeEd
   obj:*
   obj:*
   obj:*
   obj:*
   obj:*
   obj:*
   obj:*
   obj:*
}
{
   <insert_a_suppression_name_here>
   Memcheck:Leak
   match-leak-kinds: possible
   fun:_Znwm
   fun:_ZN4llvm4UsernwEmj
   fun:_ZN4llvm10ConstantFP3getERNS_11LLVMContextERKNS_7APFloatE
   fun:_ZN4llvm10ConstantFP3getEPNS_4TypeEd
   obj:*
   obj:*
   obj:*
   obj:*
   obj:*
   obj:*
   obj:*
   obj:*
}
{
   <insert_a_suppression_name_here>
   Memcheck:Leak
   match-leak-kinds: possible
   fun:_Znwm
   fun:_ZN4llvm4UsernwEmj
   fun:_ZN4llvm10ConstantFP3getERNS_11LLVMContextERKNS_7APFloatE
   fun:_ZN4llvm10ConstantFP3getEPNS_4TypeEd
   obj:*
   obj:*
   obj:*
   obj:*
   obj:*
   obj:*
   obj:*
   obj:*
}
{
   <insert_a_suppression_name_here>
   Memcheck:Leak
   match-leak-kinds: possible
   fun:_Znwm
   fun:_ZN4llvm4UsernwEmj
   fun:_ZN4llvm10ConstantFP3getERNS_11LLVMContextERKNS_7APFloatE
   fun:_ZN4llvm10ConstantFP3getEPNS_4TypeEd
   obj:*
   obj:*
   obj:*
   obj:*
   obj:*
   obj:*
   obj:*
   obj:*
}
{
   <insert_a_suppression_name_here>
   Memcheck:Leak
   match-leak-kinds: possible
   fun:_Znwm
   fun:_ZN4llvm4UsernwEmj
   fun:_ZN4llvm10ConstantFP3getERNS_11LLVMContextERKNS_7APFloatE
   fun:_ZN4llvm10ConstantFP3getEPNS_4TypeEd
   obj:*
   obj:*
   obj:*
   obj:*
   obj:*
   obj:*
   obj:*
   obj:*
}
{
   <insert_a_suppression_name_here>
   Memcheck:Leak
   match-leak-kinds: possible
   fun:_Znwm
   fun:_ZN4llvm4UsernwEmj
   fun:_ZN4llvm10ConstantFP3getERNS_11LLVMContextERKNS_7APFloatE
   fun:_ZN4llvm10ConstantFP15getNegativeZeroEPNS_4TypeE
   fun:_ZN4llvm12ConstantExpr7getFNegEPNS_8ConstantE
   obj:/usr/lib/libLLVM-3.9.so
   obj:/usr/lib/libLLVM-3.9.so
   obj:/usr/lib/libLLVM-3.9.so
   fun:_ZN4llvm24InstructionCombiningPass13runOnFunctionERNS_8FunctionE
   fun:_ZN4llvm13FPPassManager13runOnFunctionERNS_8FunctionE
   fun:_ZN4llvm6legacy23FunctionPassManagerImpl3runERNS_8FunctionE
   fun:_ZN4llvm6legacy19FunctionPassManager3runERNS_8FunctionE
}
{
   <insert_a_suppression_name_here>
   Memcheck:Leak
   match-leak-kinds: possible
   fun:calloc
   obj:*
   obj:*
   obj:*
   obj:*
   obj:*
   obj:*
   obj:*
   obj:*
   obj:*
   obj:*
   obj:*
}
{
   <insert_a_suppression_name_here>
   Memcheck:Leak
   match-leak-kinds: possible
   fun:calloc
   obj:*
   obj:*
   obj:*
   obj:*
   obj:*
   obj:*
   obj:*
   obj:*
   obj:*
   obj:*
   obj:*
}
{
   <insert_a_suppression_name_here>
   Memcheck:Leak
   match-leak-kinds: possible
   fun:calloc
   obj:*
   obj:*
   obj:*
   obj:*
   obj:*
   obj:*
   obj:*
   obj:*
   obj:*
   obj:*
   obj:*
}
{
   <insert_a_suppression_name_here>
   Memcheck:Leak
   match-leak-kinds: possible
   fun:calloc
   obj:*
   obj:*
   obj:*
   obj:*
   obj:*
   obj:*
   obj:*
   obj:*
   obj:*
   obj:*
   obj:*
}
{
   <insert_a_suppression_name_here>
   Memcheck:Leak
   match-leak-kinds: possible
   fun:calloc
   obj:*
   obj:*
   obj:*
   obj:*
   obj:*
   obj:*
   obj:*
   obj:*
   obj:*
   obj:*
   obj:*
}
{
   <insert_a_suppression_name_here>
   Memcheck:Leak
   match-leak-kinds: possible
   fun:calloc
   obj:*
   obj:*
   obj:*
   obj:*
   obj:*
   obj:*
   obj:*
   obj:*
   obj:*
   obj:*
   obj:*
}
{
   <insert_a_suppression_name_here>
   Memcheck:Leak
   match-leak-kinds: possible
   fun:_Znwm
   fun:_ZN4llvm4UsernwEmj
   fun:_ZN4llvm10ConstantFP3getERNS_11LLVMContextERKNS_7APFloatE
   fun:_ZN4llvm10ConstantFP3getEPNS_4TypeEd
   obj:*
   obj:*
   obj:*
   obj:*
   obj:*
   obj:*
   obj:*
   obj:*
}
{
   <insert_a_suppression_name_here>
   Memcheck:Leak
   match-leak-kinds: possible
   fun:calloc
   obj:*
   obj:*
   obj:*
   obj:*
   obj:*
   obj:*
   obj:*
   obj:*
   obj:*
   obj:*
   obj:*
}
{
   <insert_a_suppression_name_here>
   Memcheck:Leak
   match-leak-kinds: possible
   fun:calloc
   obj:*
   obj:*
   obj:*
   obj:*
   obj:*
   obj:*
   obj:*
   obj:*
   obj:*
   obj:*
   obj:*
}
{
   <insert_a_suppression_name_here>
   Memcheck:Leak
   match-leak-kinds: possible
   fun:calloc
   obj:*
   obj:*
   obj:*
   obj:*
   obj:*
   obj:*
   obj:*
   obj:*
   obj:*
   obj:*
   obj:*
}
{
   <insert_a_suppression_name_here>
   Memcheck:Leak
   match-leak-kinds: possible
   fun:calloc
   obj:*
   obj:*
   obj:*
   obj:*
   obj:*
   obj:*
   obj:*
   obj:*
   obj:*
   obj:*
   obj:*
}
{
   <insert_a_suppression_name_here>
   Memcheck:Leak
   match-leak-kinds: possible
   fun:_Znwm
   fun:_ZN4llvm4UsernwEmj
   fun:_ZN4llvm10ConstantFP3getERNS_11LLVMContextERKNS_7APFloatE
   fun:_ZN4llvm10ConstantFP3getEPNS_4TypeEd
   obj:*
   obj:*
   obj:*
   obj:*
   obj:*
   obj:*
   obj:*
   obj:*
}
{
   <insert_a_suppression_name_here>
   Memcheck:Leak
   match-leak-kinds: possible
   fun:_Znwm
   fun:_ZN4llvm4UsernwEmj
   fun:_ZN4llvm10ConstantFP3getERNS_11LLVMContextERKNS_7APFloatE
   fun:_ZN4llvm10ConstantFP3getEPNS_4TypeEd
   obj:*
   obj:*
   obj:*
   obj:*
   obj:*
   obj:*
   obj:*
   obj:*
}
{
   <insert_a_suppression_name_here>
   Memcheck:Leak
   match-leak-kinds: possible
   fun:_Znwm
   fun:_ZN4llvm4UsernwEmj
   fun:_ZN4llvm10ConstantFP3getERNS_11LLVMContextERKNS_7APFloatE
   fun:_ZN4llvm10ConstantFP3getEPNS_4TypeEd
   obj:*
   obj:*
   obj:*
   obj:*
   obj:*
   obj:*
   obj:*
   obj:*
}
{
   <insert_a_suppression_name_here>
   Memcheck:Leak
   match-leak-kinds: possible
   fun:malloc
   obj:*
   obj:*
   obj:*
   obj:*
   obj:*
   obj:*
   obj:*
   obj:*
   obj:*
   obj:/usr/lib/libGLX_mesa.so.0.0.0
   obj:/usr/lib/libGLX_mesa.so.0.0.0
}
{
   <insert_a_suppression_name_here>
   Memcheck:Leak
   match-leak-kinds: possible
   fun:malloc
   obj:*
   obj:*
   obj:*
   obj:*
   obj:*
   obj:*
   obj:*
   obj:*
   obj:*
   obj:*
   obj:*
}
{
   <insert_a_suppression_name_here>
   Memcheck:Leak
   match-leak-kinds: possible
   fun:malloc
   fun:_ZN4llvm22ConstantDataSequential7getImplENS_9StringRefEPNS_4TypeE
   fun:_ZN4llvm18ConstantDataVector3getERNS_11LLVMContextENS_8ArrayRefIjEE
   fun:_ZN4llvm14ConstantVector7getImplENS_8ArrayRefIPNS_8ConstantEEE
   fun:_ZN4llvm14ConstantVector3getENS_8ArrayRefIPNS_8ConstantEEE
   fun:LLVMConstVector
   obj:*
   obj:*
   obj:*
   obj:*
   obj:*
   obj:*
}
{
   <insert_a_suppression_name_here>
   Memcheck:Leak
   match-leak-kinds: possible
   fun:calloc
   obj:*
   obj:*
   obj:*
   obj:*
   obj:*
   obj:*
   obj:*
   obj:/usr/lib/libGLX_mesa.so.0.0.0
   obj:/usr/lib/libGLX_mesa.so.0.0.0
   obj:/usr/lib/libGLX_mesa.so.0.0.0
   fun:glXCreateContext
}
{
   <insert_a_suppression_name_here>
   Memcheck:Leak
   match-leak-kinds: possible
   fun:malloc
   obj:*
   obj:*
   obj:*
   obj:*
   obj:*
   obj:*
   obj:*
   obj:/usr/lib/libGLX_mesa.so.0.0.0
   obj:/usr/lib/libGLX_mesa.so.0.0.0
   obj:/usr/lib/libGLX_mesa.so.0.0.0
   fun:glXCreateContext
}
{
   <insert_a_suppression_name_here>
   Memcheck:Leak
   match-leak-kinds: possible
   fun:malloc
   obj:*
   obj:*
   obj:*
   obj:*
   obj:*
   obj:*
   obj:*
   obj:/usr/lib/libGLX_mesa.so.0.0.0
   obj:/usr/lib/libGLX_mesa.so.0.0.0
   obj:/usr/lib/libGLX_mesa.so.0.0.0
   fun:glXCreateContext
}
{
   <insert_a_suppression_name_here>
   Memcheck:Leak
   match-leak-kinds: possible
   fun:malloc
   fun:_ZN4llvm22ConstantDataSequential7getImplENS_9StringRefEPNS_4TypeE
   fun:_ZN4llvm18ConstantDataVector5getFPERNS_11LLVMContextENS_8ArrayRefIjEE
   fun:_ZN4llvm14ConstantVector7getImplENS_8ArrayRefIPNS_8ConstantEEE
   fun:_ZN4llvm14ConstantVector3getENS_8ArrayRefIPNS_8ConstantEEE
   fun:_ZN4llvm36ConstantFoldInsertElementInstructionEPNS_8ConstantES1_S1_
   fun:_ZN4llvm12ConstantExpr16getInsertElementEPNS_8ConstantES2_S2_PNS_4TypeE
   fun:LLVMBuildInsertElement
   obj:*
   obj:*
   obj:*
   obj:*
}
{
   <insert_a_suppression_name_here>
   Memcheck:Leak
   match-leak-kinds: possible
   fun:malloc
   fun:_ZN4llvm22ConstantDataSequential7getImplENS_9StringRefEPNS_4TypeE
   fun:_ZN4llvm18ConstantDataVector5getFPERNS_11LLVMContextENS_8ArrayRefIjEE
   fun:_ZN4llvm14ConstantVector7getImplENS_8ArrayRefIPNS_8ConstantEEE
   fun:_ZN4llvm14ConstantVector3getENS_8ArrayRefIPNS_8ConstantEEE
   fun:_ZN4llvm36ConstantFoldInsertElementInstructionEPNS_8ConstantES1_S1_
   fun:_ZN4llvm12ConstantExpr16getInsertElementEPNS_8ConstantES2_S2_PNS_4TypeE
   fun:LLVMBuildInsertElement
   obj:*
   obj:*
   obj:*
   obj:*
}
{
   <insert_a_suppression_name_here>
   Memcheck:Leak
   match-leak-kinds: possible
   fun:malloc
   fun:_ZN4llvm22ConstantDataSequential7getImplENS_9StringRefEPNS_4TypeE
   fun:_ZN4llvm18ConstantDataVector3getERNS_11LLVMContextENS_8ArrayRefIjEE
   fun:_ZN4llvm14ConstantVector7getImplENS_8ArrayRefIPNS_8ConstantEEE
   fun:_ZN4llvm14ConstantVector3getENS_8ArrayRefIPNS_8ConstantEEE
   fun:_ZN4llvm36ConstantFoldShuffleVectorInstructionEPNS_8ConstantES1_S1_
   fun:_ZN4llvm12ConstantExpr16getShuffleVectorEPNS_8ConstantES2_S2_PNS_4TypeE
   fun:LLVMBuildShuffleVector
   obj:*
   obj:*
   obj:*
   obj:*
}
{
   <insert_a_suppression_name_here>
   Memcheck:Leak
   match-leak-kinds: possible
   fun:malloc
   fun:_ZN4llvm22ConstantDataSequential7getImplENS_9StringRefEPNS_4TypeE
   fun:_ZN4llvm18ConstantDataVector5getFPERNS_11LLVMContextENS_8ArrayRefIjEE
   fun:_ZN4llvm14ConstantVector7getImplENS_8ArrayRefIPNS_8ConstantEEE
   fun:_ZN4llvm14ConstantVector3getENS_8ArrayRefIPNS_8ConstantEEE
   fun:_ZN4llvm29ConstantFoldBinaryInstructionEjPNS_8ConstantES1_
   fun:_ZN4llvm12ConstantExpr3getEjPNS_8ConstantES2_jPNS_4TypeE
   obj:/usr/lib/libLLVM-3.9.so
   obj:/usr/lib/libLLVM-3.9.so
   obj:/usr/lib/libLLVM-3.9.so
   fun:_ZN4llvm24InstructionCombiningPass13runOnFunctionERNS_8FunctionE
   fun:_ZN4llvm13FPPassManager13runOnFunctionERNS_8FunctionE
}
{
   <insert_a_suppression_name_here>
   Memcheck:Leak
   match-leak-kinds: possible
   fun:malloc
   fun:_ZN4llvm22ConstantDataSequential7getImplENS_9StringRefEPNS_4TypeE
   fun:_ZN4llvm18ConstantDataVector3getERNS_11LLVMContextENS_8ArrayRefIjEE
   fun:_ZN4llvm14ConstantVector7getImplENS_8ArrayRefIPNS_8ConstantEEE
   fun:_ZN4llvm14ConstantVector3getENS_8ArrayRefIPNS_8ConstantEEE
   fun:LLVMConstVector
   obj:*
   obj:*
   obj:*
   obj:*
   obj:*
   obj:*
}
{
   <insert_a_suppression_name_here>
   Memcheck:Leak
   match-leak-kinds: possible
   fun:malloc
   fun:_ZN4llvm22ConstantDataSequential7getImplENS_9StringRefEPNS_4TypeE
   fun:_ZN4llvm18ConstantDataVector3getERNS_11LLVMContextENS_8ArrayRefIjEE
   fun:_ZN4llvm14ConstantVector7getImplENS_8ArrayRefIPNS_8ConstantEEE
   fun:_ZN4llvm14ConstantVector3getENS_8ArrayRefIPNS_8ConstantEEE
   fun:_ZN4llvm29ConstantFoldBinaryInstructionEjPNS_8ConstantES1_
   fun:_ZN4llvm12ConstantExpr3getEjPNS_8ConstantES2_jPNS_4TypeE
   fun:_ZN4llvm28ConstantFoldBinaryOpOperandsEjPNS_8ConstantES1_RKNS_10DataLayoutE
   obj:/usr/lib/libLLVM-3.9.so
   obj:/usr/lib/libLLVM-3.9.so
   obj:/usr/lib/libLLVM-3.9.so
   obj:/usr/lib/libLLVM-3.9.so
}
{
   <insert_a_suppression_name_here>
   Memcheck:Leak
   match-leak-kinds: possible
   fun:malloc
   obj:*
   obj:*
   obj:*
   obj:*
   obj:*
   obj:*
   obj:*
   obj:/usr/lib/libGLX_mesa.so.0.0.0
   obj:/usr/lib/libGLX_mesa.so.0.0.0
   obj:/usr/lib/libGLX_mesa.so.0.0.0
   fun:glXCreateContext
}
{
   <insert_a_suppression_name_here>
   Memcheck:Leak
   match-leak-kinds: possible
   fun:malloc
   obj:*
   obj:*
   obj:*
   obj:*
   obj:*
   obj:*
   obj:*
   obj:/usr/lib/libGLX_mesa.so.0.0.0
   obj:/usr/lib/libGLX_mesa.so.0.0.0
   obj:/usr/lib/libGLX_mesa.so.0.0.0
   fun:glXCreateContext
}
{
   <insert_a_suppression_name_here>
   Memcheck:Leak
   match-leak-kinds: possible
   fun:malloc
   obj:*
   obj:*
   obj:*
   obj:*
   obj:*
   obj:*
   obj:*
   obj:/usr/lib/libGLX_mesa.so.0.0.0
   obj:/usr/lib/libGLX_mesa.so.0.0.0
   obj:/usr/lib/libGLX_mesa.so.0.0.0
   fun:glXCreateContext
}
{
   <insert_a_suppression_name_here>
   Memcheck:Leak
   match-leak-kinds: possible
   fun:malloc
   fun:_ZN4llvm22ConstantDataSequential7getImplENS_9StringRefEPNS_4TypeE
   fun:_ZN4llvm18ConstantDataVector3getERNS_11LLVMContextENS_8ArrayRefIjEE
   fun:_ZN4llvm14ConstantVector7getImplENS_8ArrayRefIPNS_8ConstantEEE
   fun:_ZN4llvm14ConstantVector3getENS_8ArrayRefIPNS_8ConstantEEE
   fun:LLVMConstVector
   obj:*
   obj:*
   obj:*
   obj:*
   obj:*
   obj:*
}
{
   <insert_a_suppression_name_here>
   Memcheck:Leak
   match-leak-kinds: possible
   fun:malloc
   fun:_ZN4llvm22ConstantDataSequential7getImplENS_9StringRefEPNS_4TypeE
   fun:_ZN4llvm18ConstantDataVector3getERNS_11LLVMContextENS_8ArrayRefIjEE
   fun:_ZN4llvm14ConstantVector7getImplENS_8ArrayRefIPNS_8ConstantEEE
   fun:_ZN4llvm14ConstantVector3getENS_8ArrayRefIPNS_8ConstantEEE
   fun:LLVMConstVector
   obj:*
   obj:*
   obj:*
   obj:*
   obj:*
   obj:*
}
{
   <insert_a_suppression_name_here>
   Memcheck:Leak
   match-leak-kinds: possible
   fun:malloc
   fun:_ZN4llvm22ConstantDataSequential7getImplENS_9StringRefEPNS_4TypeE
   fun:_ZN4llvm18ConstantDataVector3getERNS_11LLVMContextENS_8ArrayRefIjEE
   fun:_ZN4llvm14ConstantVector7getImplENS_8ArrayRefIPNS_8ConstantEEE
   fun:_ZN4llvm14ConstantVector3getENS_8ArrayRefIPNS_8ConstantEEE
   fun:_ZN4llvm36ConstantFoldShuffleVectorInstructionEPNS_8ConstantES1_S1_
   fun:_ZN4llvm12ConstantExpr16getShuffleVectorEPNS_8ConstantES2_S2_PNS_4TypeE
   fun:LLVMBuildShuffleVector
   obj:*
   obj:*
   obj:*
   obj:*
}
{
   <insert_a_suppression_name_here>
   Memcheck:Leak
   match-leak-kinds: possible
   fun:malloc
   fun:_ZN4llvm22ConstantDataSequential7getImplENS_9StringRefEPNS_4TypeE
   fun:_ZN4llvm18ConstantDataVector3getERNS_11LLVMContextENS_8ArrayRefIjEE
   fun:_ZN4llvm14ConstantVector7getImplENS_8ArrayRefIPNS_8ConstantEEE
   fun:_ZN4llvm14ConstantVector3getENS_8ArrayRefIPNS_8ConstantEEE
   fun:LLVMConstVector
   obj:*
   obj:*
   obj:*
   obj:*
   obj:*
   obj:*
}
{
   <insert_a_suppression_name_here>
   Memcheck:Leak
   match-leak-kinds: possible
   fun:calloc
   obj:*
   obj:*
   obj:*
   obj:*
   obj:*
   obj:*
   obj:*
   obj:*
   obj:*
   obj:/usr/lib/libGLX_mesa.so.0.0.0
   obj:/usr/lib/libGLX_mesa.so.0.0.0
}
{
   <insert_a_suppression_name_here>
   Memcheck:Leak
   match-leak-kinds: possible
   fun:calloc
   obj:*
   obj:*
   obj:*
   obj:*
   obj:*
   obj:*
   obj:*
   obj:*
   obj:*
   obj:/usr/lib/libGLX_mesa.so.0.0.0
   obj:/usr/lib/libGLX_mesa.so.0.0.0
}
{
   <insert_a_suppression_name_here>
   Memcheck:Leak
   match-leak-kinds: possible
   fun:calloc
   obj:*
   obj:*
   obj:*
   obj:*
   obj:*
   obj:*
   obj:*
   obj:*
   obj:*
   obj:/usr/lib/libGLX_mesa.so.0.0.0
   obj:/usr/lib/libGLX_mesa.so.0.0.0
}
{
   <insert_a_suppression_name_here>
   Memcheck:Leak
   match-leak-kinds: possible
   fun:_Znwm
   fun:_ZN4llvm4UsernwEmj
   fun:_ZN4llvm22ConstantDataSequential7getImplENS_9StringRefEPNS_4TypeE
   fun:_ZN4llvm18ConstantDataVector5getFPERNS_11LLVMContextENS_8ArrayRefIjEE
   fun:_ZN4llvm14ConstantVector7getImplENS_8ArrayRefIPNS_8ConstantEEE
   fun:_ZN4llvm14ConstantVector3getENS_8ArrayRefIPNS_8ConstantEEE
   fun:_ZN4llvm36ConstantFoldInsertElementInstructionEPNS_8ConstantES1_S1_
   fun:_ZN4llvm12ConstantExpr16getInsertElementEPNS_8ConstantES2_S2_PNS_4TypeE
   fun:LLVMBuildInsertElement
   obj:*
   obj:*
   obj:*
}
{
   <insert_a_suppression_name_here>
   Memcheck:Leak
   match-leak-kinds: possible
   fun:_Znwm
   fun:_ZN4llvm4UsernwEmj
   fun:_ZN4llvm22ConstantDataSequential7getImplENS_9StringRefEPNS_4TypeE
   fun:_ZN4llvm18ConstantDataVector5getFPERNS_11LLVMContextENS_8ArrayRefIjEE
   fun:_ZN4llvm14ConstantVector7getImplENS_8ArrayRefIPNS_8ConstantEEE
   fun:_ZN4llvm14ConstantVector3getENS_8ArrayRefIPNS_8ConstantEEE
   fun:_ZN4llvm36ConstantFoldInsertElementInstructionEPNS_8ConstantES1_S1_
   fun:_ZN4llvm12ConstantExpr16getInsertElementEPNS_8ConstantES2_S2_PNS_4TypeE
   fun:LLVMBuildInsertElement
   obj:*
   obj:*
   obj:*
}
{
   <insert_a_suppression_name_here>
   Memcheck:Leak
   match-leak-kinds: possible
   fun:_Znwm
   fun:_ZN4llvm4UsernwEmj
   fun:_ZN4llvm22ConstantDataSequential7getImplENS_9StringRefEPNS_4TypeE
   fun:_ZN4llvm18ConstantDataVector3getERNS_11LLVMContextENS_8ArrayRefIjEE
   fun:_ZN4llvm14ConstantVector7getImplENS_8ArrayRefIPNS_8ConstantEEE
   fun:_ZN4llvm14ConstantVector3getENS_8ArrayRefIPNS_8ConstantEEE
   fun:_ZN4llvm36ConstantFoldShuffleVectorInstructionEPNS_8ConstantES1_S1_
   fun:_ZN4llvm12ConstantExpr16getShuffleVectorEPNS_8ConstantES2_S2_PNS_4TypeE
   fun:LLVMBuildShuffleVector
   obj:*
   obj:*
   obj:*
}
{
   <insert_a_suppression_name_here>
   Memcheck:Leak
   match-leak-kinds: possible
   fun:_Znwm
   fun:_ZN4llvm16AttributeSetNode3getERNS_11LLVMContextENS_8ArrayRefINS_9AttributeEEE
   fun:_ZN4llvm12AttributeSet3getERNS_11LLVMContextENS_8ArrayRefISt4pairIjNS_9AttributeEEEE
   fun:_ZN4llvm12AttributeSet3getERNS_11LLVMContextEjRKNS_11AttrBuilderE
   fun:_ZNK4llvm12AttributeSet13addAttributesERNS_11LLVMContextEjS0_
   fun:_ZN4llvm8Function13addAttributesEjNS_12AttributeSetE
   fun:LLVMAddTargetDependentFunctionAttr
   obj:*
   obj:*
   obj:*
   obj:*
   obj:*
}
{
   <insert_a_suppression_name_here>
   Memcheck:Leak
   match-leak-kinds: possible
   fun:_Znwm
   fun:_ZN4llvm12AttributeSet7getImplERNS_11LLVMContextENS_8ArrayRefISt4pairIjPNS_16AttributeSetNodeEEEE
   fun:_ZN4llvm12AttributeSet3getERNS_11LLVMContextENS_8ArrayRefISt4pairIjNS_9AttributeEEEE
   fun:_ZN4llvm12AttributeSet3getERNS_11LLVMContextEjRKNS_11AttrBuilderE
   fun:_ZNK4llvm12AttributeSet13addAttributesERNS_11LLVMContextEjS0_
   fun:_ZN4llvm8Function13addAttributesEjNS_12AttributeSetE
   fun:LLVMAddTargetDependentFunctionAttr
   obj:*
   obj:*
   obj:*
   obj:*
   obj:*
}
{
   <insert_a_suppression_name_here>
   Memcheck:Leak
   match-leak-kinds: possible
   fun:_Znwm
   fun:_ZN4llvm4UsernwEmj
   fun:_ZN4llvm11ConstantInt3getERNS_11LLVMContextERKNS_5APIntE
   fun:_ZN4llvm11ConstantInt3getEPNS_11IntegerTypeEmb
   fun:_ZN4llvm15ScalarEvolution11getConstantEPNS_4TypeEmb
   fun:_ZN4llvm15ScalarEvolution10getGEPExprEPNS_4TypeEPKNS_4SCEVERKNS_15SmallVectorImplIS5_EEb
   fun:_ZN4llvm15ScalarEvolution16createNodeForGEPEPNS_11GEPOperatorE
   fun:_ZN4llvm15ScalarEvolution10createSCEVEPNS_5ValueE
   fun:_ZN4llvm15ScalarEvolution7getSCEVEPNS_5ValueE
   fun:_ZN4llvm7IVUsers12AddUsersImplEPNS_11InstructionERNS_15SmallPtrSetImplIPNS_4LoopEEE
   fun:_ZN4llvm7IVUsers12AddUsersImplEPNS_11InstructionERNS_15SmallPtrSetImplIPNS_4LoopEEE
   fun:_ZN4llvm7IVUsers12AddUsersImplEPNS_11InstructionERNS_15SmallPtrSetImplIPNS_4LoopEEE
}
{
   <insert_a_suppression_name_here>
   Memcheck:Leak
   match-leak-kinds: possible
   fun:_Znwm
   fun:_ZN4llvm4UsernwEmj
   fun:_ZN4llvm11ConstantInt3getERNS_11LLVMContextERKNS_5APIntE
   fun:_ZN4llvm15ScalarEvolution10getMulExprERNS_15SmallVectorImplIPKNS_4SCEVEEENS2_11NoWrapFlagsE
   fun:_ZN4llvm15ScalarEvolution10getGEPExprEPNS_4TypeEPKNS_4SCEVERKNS_15SmallVectorImplIS5_EEb
   fun:_ZN4llvm15ScalarEvolution16createNodeForGEPEPNS_11GEPOperatorE
   fun:_ZN4llvm15ScalarEvolution10createSCEVEPNS_5ValueE
   fun:_ZN4llvm15ScalarEvolution7getSCEVEPNS_5ValueE
   obj:/usr/lib/libLLVM-3.9.so
   fun:_ZN4llvm13LPPassManager13runOnFunctionERNS_8FunctionE
   fun:_ZN4llvm13FPPassManager13runOnFunctionERNS_8FunctionE
   fun:_ZN4llvm13FPPassManager11runOnModuleERNS_6ModuleE
}
{
   <insert_a_suppression_name_here>
   Memcheck:Leak
   match-leak-kinds: possible
   fun:_Znwm
   fun:_ZN4llvm12AttributeSet7getImplERNS_11LLVMContextENS_8ArrayRefISt4pairIjPNS_16AttributeSetNodeEEEE
   fun:_ZN4llvm12AttributeSet3getERNS_11LLVMContextENS_8ArrayRefISt4pairIjNS_9AttributeEEEE
   fun:_ZN4llvm12AttributeSet3getERNS_11LLVMContextEjRKNS_11AttrBuilderE
   fun:LLVMAddAttribute
   obj:*
   obj:*
   obj:*
   obj:*
   obj:*
   obj:*
   obj:*
}
{
   <insert_a_suppression_name_here>
   Memcheck:Leak
   match-leak-kinds: possible
   fun:_Znwm
   fun:_ZN4llvm4UsernwEmj
   fun:_ZN4llvm22ConstantDataSequential7getImplENS_9StringRefEPNS_4TypeE
   fun:_ZN4llvm18ConstantDataVector5getFPERNS_11LLVMContextENS_8ArrayRefIjEE
   fun:_ZN4llvm14ConstantVector7getImplENS_8ArrayRefIPNS_8ConstantEEE
   fun:_ZN4llvm14ConstantVector3getENS_8ArrayRefIPNS_8ConstantEEE
   fun:_ZN4llvm29ConstantFoldBinaryInstructionEjPNS_8ConstantES1_
   fun:_ZN4llvm12ConstantExpr3getEjPNS_8ConstantES2_jPNS_4TypeE
   obj:/usr/lib/libLLVM-3.9.so
   obj:/usr/lib/libLLVM-3.9.so
   obj:/usr/lib/libLLVM-3.9.so
   fun:_ZN4llvm24InstructionCombiningPass13runOnFunctionERNS_8FunctionE
}
{
   <insert_a_suppression_name_here>
   Memcheck:Leak
   match-leak-kinds: possible
   fun:_Znwm
   fun:_ZN4llvm4UsernwEmj
   fun:_ZN4llvm22ConstantDataSequential7getImplENS_9StringRefEPNS_4TypeE
   fun:_ZN4llvm18ConstantDataVector3getERNS_11LLVMContextENS_8ArrayRefIjEE
   fun:_ZN4llvm14ConstantVector7getImplENS_8ArrayRefIPNS_8ConstantEEE
   fun:_ZN4llvm14ConstantVector3getENS_8ArrayRefIPNS_8ConstantEEE
   fun:LLVMConstVector
   obj:*
   obj:*
   obj:*
   obj:*
   obj:*
}
{
   <insert_a_suppression_name_here>
   Memcheck:Leak
   match-leak-kinds: possible
   fun:_Znwm
   fun:_ZN4llvm4UsernwEmj
   fun:_ZN4llvm11ConstantInt3getERNS_11LLVMContextERKNS_5APIntE
   fun:_ZN4llvm29ConstantFoldBinaryInstructionEjPNS_8ConstantES1_
   fun:_ZN4llvm12ConstantExpr3getEjPNS_8ConstantES2_jPNS_4TypeE
   fun:_ZN4llvm29ConstantFoldBinaryInstructionEjPNS_8ConstantES1_
   fun:_ZN4llvm12ConstantExpr3getEjPNS_8ConstantES2_jPNS_4TypeE
   fun:_ZN4llvm28ConstantFoldBinaryOpOperandsEjPNS_8ConstantES1_RKNS_10DataLayoutE
   obj:/usr/lib/libLLVM-3.9.so
   obj:/usr/lib/libLLVM-3.9.so
   obj:/usr/lib/libLLVM-3.9.so
   obj:/usr/lib/libLLVM-3.9.so
}
{
   <insert_a_suppression_name_here>
   Memcheck:Leak
   match-leak-kinds: possible
   fun:_Znwm
   fun:_ZN4llvm4UsernwEmj
   fun:_ZN4llvm11ConstantInt3getERNS_11LLVMContextERKNS_5APIntE
   fun:_ZN4llvm12SelectionDAG11getConstantERKNS_5APIntERKNS_5SDLocENS_3EVTEbb
   fun:_ZN4llvm12SelectionDAG11getConstantEmRKNS_5SDLocENS_3EVTEbb
   obj:/usr/lib/libLLVM-3.9.so
   fun:_ZNK4llvm17X86TargetLowering10LowerSETCCENS_7SDValueERNS_12SelectionDAGE
   fun:_ZNK4llvm17X86TargetLowering14LowerOperationENS_7SDValueERNS_12SelectionDAGE
   obj:/usr/lib/libLLVM-3.9.so
   fun:_ZN4llvm12SelectionDAG15LegalizeVectorsEv
   fun:_ZN4llvm16SelectionDAGISel17CodeGenAndEmitDAGEv
   fun:_ZN4llvm16SelectionDAGISel20SelectAllBasicBlocksERKNS_8FunctionE
}
{
   <insert_a_suppression_name_here>
   Memcheck:Leak
   match-leak-kinds: possible
   fun:_Znam
   fun:_ZN4llvm5APInt14AssignSlowCaseERKS0_
   fun:_ZN4llvm11ConstantInt3getERNS_11LLVMContextERKNS_5APIntE
   fun:_ZN4llvm11ConstantInt3getEPNS_4TypeERKNS_5APIntE
   obj:/usr/lib/libLLVM-3.9.so
   fun:_ZN4llvm23ConstantFoldCastOperandEjPNS_8ConstantEPNS_4TypeERKNS_10DataLayoutE
   fun:_ZN4llvm19MachineConstantPool20getConstantPoolIndexEPKNS_8ConstantEj
   obj:/usr/lib/libLLVM-3.9.so
   obj:/usr/lib/libLLVM-3.9.so
   fun:_ZN4llvm18ScheduleDAGSDNodes12EmitScheduleERNS_26MachineInstrBundleIteratorINS_12MachineInstrEEE
   fun:_ZN4llvm16SelectionDAGISel17CodeGenAndEmitDAGEv
   fun:_ZN4llvm16SelectionDAGISel20SelectAllBasicBlocksERKNS_8FunctionE
}
{
   <insert_a_suppression_name_here>
   Memcheck:Leak
   match-leak-kinds: possible
   fun:_Znam
   fun:_ZN4llvm5APInt12initSlowCaseERKS0_
   fun:_ZN4llvm11ConstantInt3getERNS_11LLVMContextERKNS_5APIntE
   fun:_ZN4llvm11ConstantInt3getEPNS_4TypeERKNS_5APIntE
   obj:/usr/lib/libLLVM-3.9.so
   fun:_ZN4llvm23ConstantFoldCastOperandEjPNS_8ConstantEPNS_4TypeERKNS_10DataLayoutE
   fun:_ZN4llvm19MachineConstantPool20getConstantPoolIndexEPKNS_8ConstantEj
   obj:/usr/lib/libLLVM-3.9.so
   obj:/usr/lib/libLLVM-3.9.so
   fun:_ZN4llvm18ScheduleDAGSDNodes12EmitScheduleERNS_26MachineInstrBundleIteratorINS_12MachineInstrEEE
   fun:_ZN4llvm16SelectionDAGISel17CodeGenAndEmitDAGEv
   fun:_ZN4llvm16SelectionDAGISel20SelectAllBasicBlocksERKNS_8FunctionE
}
{
   <insert_a_suppression_name_here>
   Memcheck:Leak
   match-leak-kinds: possible
   fun:calloc
   obj:*
   obj:*
   obj:*
   obj:*
   obj:*
   obj:*
   obj:*
   obj:*
   obj:*
   obj:/usr/lib/libGLX_mesa.so.0.0.0
   obj:/usr/lib/libGLX_mesa.so.0.0.0
}
{
   <insert_a_suppression_name_here>
   Memcheck:Leak
   match-leak-kinds: possible
   fun:calloc
   obj:*
   obj:*
   obj:*
   obj:*
   obj:*
   obj:*
   obj:*
   obj:*
   obj:*
   obj:/usr/lib/libGLX_mesa.so.0.0.0
   obj:/usr/lib/libGLX_mesa.so.0.0.0
}
{
   <insert_a_suppression_name_here>
   Memcheck:Leak
   match-leak-kinds: possible
   fun:calloc
   obj:*
   obj:*
   obj:*
   obj:*
   obj:*
   obj:*
   obj:*
   obj:*
   obj:*
   obj:/usr/lib/libGLX_mesa.so.0.0.0
   obj:/usr/lib/libGLX_mesa.so.0.0.0
}
{
   <insert_a_suppression_name_here>
   Memcheck:Leak
   match-leak-kinds: possible
   fun:calloc
   obj:*
   obj:*
   obj:*
   obj:*
   obj:*
   obj:*
   obj:*
   obj:*
   obj:*
   obj:/usr/lib/libGLX_mesa.so.0.0.0
   obj:/usr/lib/libGLX_mesa.so.0.0.0
}
{
   <insert_a_suppression_name_here>
   Memcheck:Leak
   match-leak-kinds: possible
   fun:calloc
   obj:*
   obj:*
   obj:*
   obj:*
   obj:*
   obj:*
   obj:*
   obj:*
   obj:*
   obj:/usr/lib/libGLX_mesa.so.0.0.0
   obj:/usr/lib/libGLX_mesa.so.0.0.0
}
{
   <insert_a_suppression_name_here>
   Memcheck:Leak
   match-leak-kinds: possible
   fun:_Znwm
   fun:_ZN4llvm4UsernwEmj
   fun:_ZN4llvm10ConstantFP3getERNS_11LLVMContextERKNS_7APFloatE
   fun:_ZN4llvm29ConstantFoldBinaryInstructionEjPNS_8ConstantES1_
   fun:_ZN4llvm12ConstantExpr3getEjPNS_8ConstantES2_jPNS_4TypeE
   fun:_ZN4llvm29ConstantFoldBinaryInstructionEjPNS_8ConstantES1_
   fun:_ZN4llvm12ConstantExpr3getEjPNS_8ConstantES2_jPNS_4TypeE
   obj:/usr/lib/libLLVM-3.9.so
   obj:/usr/lib/libLLVM-3.9.so
   obj:/usr/lib/libLLVM-3.9.so
   fun:_ZN4llvm24InstructionCombiningPass13runOnFunctionERNS_8FunctionE
   fun:_ZN4llvm13FPPassManager13runOnFunctionERNS_8FunctionE
}
{
   <insert_a_suppression_name_here>
   Memcheck:Leak
   match-leak-kinds: possible
   fun:_Znwm
   obj:*
   obj:*
   obj:*
   obj:*
   obj:*
   obj:*
   obj:*
   obj:*
   obj:*
   obj:*
   obj:*
}
{
   <insert_a_suppression_name_here>
   Memcheck:Leak
   match-leak-kinds: possible
   fun:calloc
   obj:*
   obj:*
   obj:*
   obj:*
   obj:*
   obj:*
   obj:*
   obj:*
   obj:*
   obj:/usr/lib/libGLX_mesa.so.0.0.0
   obj:/usr/lib/libGLX_mesa.so.0.0.0
}
{
   <insert_a_suppression_name_here>
   Memcheck:Leak
   match-leak-kinds: possible
   fun:malloc
   obj:*
   obj:*
   obj:*
   obj:*
   obj:*
   obj:*
   obj:*
   obj:*
   obj:*
   obj:*
   obj:*
}
{
   <insert_a_suppression_name_here>
   Memcheck:Leak
   match-leak-kinds: possible
   fun:_Znwm
   fun:_ZN4llvm12AttributeSet7getImplERNS_11LLVMContextENS_8ArrayRefISt4pairIjPNS_16AttributeSetNodeEEEE
   fun:_ZN4llvm12AttributeSet3getERNS_11LLVMContextENS_8ArrayRefIS0_EE
   fun:_ZNK4llvm12AttributeSet13addAttributesERNS_11LLVMContextEjS0_
   fun:_ZN4llvm8Function13addAttributesEjNS_12AttributeSetE
   fun:LLVMAddTargetDependentFunctionAttr
   obj:*
   obj:*
   obj:*
   obj:*
   obj:*
   obj:*
}
{
   <insert_a_suppression_name_here>
   Memcheck:Leak
   match-leak-kinds: possible
   fun:_Znwm
   fun:_ZN4llvm12AttributeSet7getImplERNS_11LLVMContextENS_8ArrayRefISt4pairIjPNS_16AttributeSetNodeEEEE
   fun:_ZN4llvm12AttributeSet3getERNS_11LLVMContextENS_8ArrayRefIS0_EE
   fun:_ZNK4llvm12AttributeSet13addAttributesERNS_11LLVMContextEjS0_
   fun:_ZN4llvm8Function13addAttributesEjNS_12AttributeSetE
   fun:LLVMAddTargetDependentFunctionAttr
   obj:*
   obj:*
   obj:*
   obj:*
   obj:*
   obj:*
}
{
   <insert_a_suppression_name_here>
   Memcheck:Leak
   match-leak-kinds: possible
   fun:_Znwm
   fun:_ZN4llvm4UsernwEmj
   fun:_ZN4llvm14ConstantVector3getENS_8ArrayRefIPNS_8ConstantEEE
   obj:/usr/lib/libLLVM-3.9.so
   obj:/usr/lib/libLLVM-3.9.so
   obj:/usr/lib/libLLVM-3.9.so
   obj:/usr/lib/libLLVM-3.9.so
   obj:/usr/lib/libLLVM-3.9.so
   obj:/usr/lib/libLLVM-3.9.so
   fun:_ZN4llvm24InstructionCombiningPass13runOnFunctionERNS_8FunctionE
   fun:_ZN4llvm13FPPassManager13runOnFunctionERNS_8FunctionE
   fun:_ZN4llvm6legacy23FunctionPassManagerImpl3runERNS_8FunctionE
}
{
   <insert_a_suppression_name_here>
   Memcheck:Leak
   match-leak-kinds: possible
   fun:_Znwm
   fun:_ZN4llvm4UsernwEmj
   fun:_ZN4llvm14ConstantVector3getENS_8ArrayRefIPNS_8ConstantEEE
   fun:_ZN4llvm14ConstantVector8getSplatEjPNS_8ConstantE
   fun:_ZN4llvm8Constant15getAllOnesValueEPNS_4TypeE
   fun:_ZN4llvm14BinaryOperator9CreateNotEPNS_5ValueERKNS_5TwineEPNS_11InstructionE
   fun:LLVMBuildNot
   obj:*
   obj:*
   obj:*
   obj:*
   obj:*
}
{
   <insert_a_suppression_name_here>
   Memcheck:Leak
   match-leak-kinds: possible
   fun:calloc
   obj:*
   obj:*
   obj:*
   obj:*
   obj:*
   obj:*
   obj:*
   obj:*
   obj:*
   obj:/usr/lib/libGLX_mesa.so.0.0.0
   obj:/usr/lib/libGLX_mesa.so.0.0.0
}
{
   <insert_a_suppression_name_here>
   Memcheck:Leak
   match-leak-kinds: possible
   fun:malloc
   obj:*
   obj:*
   obj:*
   obj:*
   obj:*
   obj:*
   obj:*
   obj:*
   obj:*
   obj:*
   obj:*
}
{
   <insert_a_suppression_name_here>
   Memcheck:Leak
   match-leak-kinds: possible
   fun:malloc
   obj:*
   obj:*
   obj:*
   obj:*
   obj:*
   obj:*
   obj:*
   obj:*
   obj:*
   obj:*
   obj:*
}
{
   <insert_a_suppression_name_here>
   Memcheck:Leak
   match-leak-kinds: possible
   fun:_Znwm
   fun:_ZN4llvm12AttributeSet7getImplERNS_11LLVMContextENS_8ArrayRefISt4pairIjPNS_16AttributeSetNodeEEEE
   fun:_ZN4llvm12AttributeSet3getERNS_11LLVMContextENS_8ArrayRefIS0_EE
   fun:_ZNK4llvm12AttributeSet13addAttributesERNS_11LLVMContextEjS0_
   fun:_ZN4llvm8Function13addAttributesEjNS_12AttributeSetE
   fun:LLVMAddTargetDependentFunctionAttr
   obj:*
   obj:*
   obj:*
   obj:*
   obj:*
   obj:*
}
{
   <insert_a_suppression_name_here>
   Memcheck:Leak
   match-leak-kinds: possible
   fun:_Znwm
   fun:_ZN4llvm12AttributeSet7getImplERNS_11LLVMContextENS_8ArrayRefISt4pairIjPNS_16AttributeSetNodeEEEE
   fun:_ZN4llvm12AttributeSet3getERNS_11LLVMContextENS_8ArrayRefIS0_EE
   fun:_ZNK4llvm12AttributeSet13addAttributesERNS_11LLVMContextEjS0_
   fun:_ZN4llvm8Function13addAttributesEjNS_12AttributeSetE
   fun:LLVMAddTargetDependentFunctionAttr
   obj:*
   obj:*
   obj:*
   obj:*
   obj:*
   obj:*
}
{
   <insert_a_suppression_name_here>
   Memcheck:Leak
   match-leak-kinds: possible
   fun:_Znwm
   fun:_ZN4llvm4UsernwEmj
   fun:_ZN4llvm11ConstantInt3getERNS_11LLVMContextERKNS_5APIntE
   fun:_ZN4llvm11ConstantInt3getEPNS_11IntegerTypeEmb
   fun:_ZN4llvm36ConstantFoldInsertElementInstructionEPNS_8ConstantES1_S1_
   fun:_ZN4llvm12ConstantExpr16getInsertElementEPNS_8ConstantES2_S2_PNS_4TypeE
   fun:LLVMBuildInsertElement
   obj:*
   obj:*
   obj:*
   obj:*
   obj:*
}
{
   <insert_a_suppression_name_here>
   Memcheck:Leak
   match-leak-kinds: possible
   fun:_Znwm
   fun:_ZN4llvm4UsernwEmj
   fun:_ZN4llvm11ConstantInt3getERNS_11LLVMContextERKNS_5APIntE
   fun:_ZN4llvm12SelectionDAG11getConstantERKNS_5APIntERKNS_5SDLocENS_3EVTEbb
   fun:_ZN4llvm12SelectionDAG7getNodeEjRKNS_5SDLocENS_3EVTENS_7SDValueE
   fun:_ZN4llvm19SelectionDAGBuilder10visitShiftERKNS_4UserEj
   fun:_ZN4llvm19SelectionDAGBuilder5visitERKNS_11InstructionE
   fun:_ZN4llvm16SelectionDAGISel16SelectBasicBlockENS_14ilist_iteratorIKNS_11InstructionEEES4_Rb
   fun:_ZN4llvm16SelectionDAGISel20SelectAllBasicBlocksERKNS_8FunctionE
   fun:_ZN4llvm16SelectionDAGISel20runOnMachineFunctionERNS_15MachineFunctionE
   obj:/usr/lib/libLLVM-3.9.so
   fun:_ZN4llvm19MachineFunctionPass13runOnFunctionERNS_8FunctionE
}
{
   <insert_a_suppression_name_here>
   Memcheck:Leak
   match-leak-kinds: possible
   fun:_Znwm
   fun:_ZN4llvm4UsernwEmj
   fun:_ZN4llvm11ConstantInt3getERNS_11LLVMContextERKNS_5APIntE
   fun:_ZN4llvm27ConstantFoldCastInstructionEjPNS_8ConstantEPNS_4TypeE
   obj:/usr/lib/libLLVM-3.9.so
   fun:_ZN4llvm27ConstantFoldCastInstructionEjPNS_8ConstantEPNS_4TypeE
   obj:/usr/lib/libLLVM-3.9.so
   obj:/usr/lib/libLLVM-3.9.so
   fun:_ZN4llvm23ConstantFoldCastOperandEjPNS_8ConstantEPNS_4TypeERKNS_10DataLayoutE
   fun:_ZN4llvm19MachineConstantPool20getConstantPoolIndexEPKNS_8ConstantEj
   obj:/usr/lib/libLLVM-3.9.so
   obj:/usr/lib/libLLVM-3.9.so
}
{
   <insert_a_suppression_name_here>
   Memcheck:Leak
   match-leak-kinds: possible
   fun:_Znwm
   fun:_ZN4llvm4UsernwEmj
   fun:_ZN4llvm22ConstantDataSequential7getImplENS_9StringRefEPNS_4TypeE
   fun:_ZN4llvm18ConstantDataVector3getERNS_11LLVMContextENS_8ArrayRefIhEE
   fun:_ZN4llvm14ConstantVector7getImplENS_8ArrayRefIPNS_8ConstantEEE
   fun:_ZN4llvm14ConstantVector3getENS_8ArrayRefIPNS_8ConstantEEE
   obj:/usr/lib/libLLVM-3.9.so
   obj:/usr/lib/libLLVM-3.9.so
   obj:/usr/lib/libLLVM-3.9.so
   fun:_ZN4llvm12SelectionDAG8LegalizeEv
   fun:_ZN4llvm16SelectionDAGISel17CodeGenAndEmitDAGEv
   fun:_ZN4llvm16SelectionDAGISel20SelectAllBasicBlocksERKNS_8FunctionE
}
{
   <insert_a_suppression_name_here>
   Memcheck:Leak
   match-leak-kinds: possible
   fun:_Znwm
   fun:_ZN4llvm4UsernwEmj
   fun:_ZN4llvm22ConstantDataSequential7getImplENS_9StringRefEPNS_4TypeE
   fun:_ZN4llvm18ConstantDataVector3getERNS_11LLVMContextENS_8ArrayRefIjEE
   fun:_ZN4llvm14ConstantVector7getImplENS_8ArrayRefIPNS_8ConstantEEE
   fun:_ZN4llvm14ConstantVector3getENS_8ArrayRefIPNS_8ConstantEEE
   fun:LLVMConstVector
   obj:*
   obj:*
   obj:*
   obj:*
   obj:*
}
{
   <insert_a_suppression_name_here>
   Memcheck:Leak
   match-leak-kinds: possible
   fun:_Znwm
   fun:_ZN4llvm4UsernwEmj
   fun:_ZN4llvm11ConstantInt3getERNS_11LLVMContextERKNS_5APIntE
   fun:_ZN4llvm29ConstantFoldBinaryInstructionEjPNS_8ConstantES1_
   fun:_ZN4llvm12ConstantExpr3getEjPNS_8ConstantES2_jPNS_4TypeE
   fun:_ZN4llvm29ConstantFoldBinaryInstructionEjPNS_8ConstantES1_
   fun:_ZN4llvm12ConstantExpr3getEjPNS_8ConstantES2_jPNS_4TypeE
   fun:_ZN4llvm28ConstantFoldBinaryOpOperandsEjPNS_8ConstantES1_RKNS_10DataLayoutE
   obj:/usr/lib/libLLVM-3.9.so
   obj:/usr/lib/libLLVM-3.9.so
   obj:/usr/lib/libLLVM-3.9.so
   obj:/usr/lib/libLLVM-3.9.so
}
{
   <insert_a_suppression_name_here>
   Memcheck:Leak
   match-leak-kinds: possible
   fun:_Znwm
   fun:_ZN4llvm4UsernwEmj
   fun:_ZN4llvm11ConstantInt3getERNS_11LLVMContextERKNS_5APIntE
   fun:_ZN4llvm12SelectionDAG11getConstantERKNS_5APIntERKNS_5SDLocENS_3EVTEbb
   fun:_ZN4llvm12SelectionDAG11getConstantEmRKNS_5SDLocENS_3EVTEbb
   obj:/usr/lib/libLLVM-3.9.so
   obj:/usr/lib/libLLVM-3.9.so
   fun:_ZNK4llvm17X86TargetLowering14LowerOperationENS_7SDValueERNS_12SelectionDAGE
   obj:/usr/lib/libLLVM-3.9.so
   fun:_ZN4llvm12SelectionDAG15LegalizeVectorsEv
   fun:_ZN4llvm16SelectionDAGISel17CodeGenAndEmitDAGEv
   fun:_ZN4llvm16SelectionDAGISel20SelectAllBasicBlocksERKNS_8FunctionE
}
{
   <insert_a_suppression_name_here>
   Memcheck:Leak
   match-leak-kinds: possible
   fun:malloc
   fun:_ZN4llvm22ConstantDataSequential7getImplENS_9StringRefEPNS_4TypeE
   fun:_ZN4llvm18ConstantDataVector5getFPERNS_11LLVMContextENS_8ArrayRefIjEE
   fun:_ZN4llvm14ConstantVector7getImplENS_8ArrayRefIPNS_8ConstantEEE
   fun:_ZN4llvm14ConstantVector3getENS_8ArrayRefIPNS_8ConstantEEE
   fun:LLVMConstVector
   obj:*
   obj:*
   obj:*
   obj:*
   obj:*
   obj:*
}
{
   <insert_a_suppression_name_here>
   Memcheck:Leak
   match-leak-kinds: possible
   fun:malloc
   fun:_ZN4llvm22ConstantDataSequential7getImplENS_9StringRefEPNS_4TypeE
   fun:_ZN4llvm18ConstantDataVector5getFPERNS_11LLVMContextENS_8ArrayRefIjEE
   fun:_ZN4llvm14ConstantVector7getImplENS_8ArrayRefIPNS_8ConstantEEE
   fun:_ZN4llvm14ConstantVector3getENS_8ArrayRefIPNS_8ConstantEEE
   fun:LLVMConstVector
   obj:*
   obj:*
   obj:*
   obj:*
   obj:*
   obj:*
}
{
   <insert_a_suppression_name_here>
   Memcheck:Leak
   match-leak-kinds: possible
   fun:_Znwm
   fun:_ZN4llvm4UsernwEmj
   fun:_ZN4llvm10ConstantFP3getERNS_11LLVMContextERKNS_7APFloatE
   fun:_ZN4llvm10ConstantFP3getEPNS_4TypeEd
   obj:*
   obj:*
   obj:*
   obj:*
   obj:*
   obj:*
   obj:*
   obj:*
}
{
   <insert_a_suppression_name_here>
   Memcheck:Leak
   match-leak-kinds: possible
   fun:_Znwm
   fun:_ZN4llvm12AttributeSet7getImplERNS_11LLVMContextENS_8ArrayRefISt4pairIjPNS_16AttributeSetNodeEEEE
   fun:_ZN4llvm12AttributeSet3getERNS_11LLVMContextENS_8ArrayRefIS0_EE
   fun:_ZNK4llvm12AttributeSet13addAttributesERNS_11LLVMContextEjS0_
   fun:_ZN4llvm8Function13addAttributesEjNS_12AttributeSetE
   fun:LLVMAddTargetDependentFunctionAttr
   obj:*
   obj:*
   obj:*
   obj:*
   obj:*
   obj:*
}
{
   <insert_a_suppression_name_here>
   Memcheck:Leak
   match-leak-kinds: possible
   fun:_Znwm
   fun:_ZN4llvm12AttributeSet7getImplERNS_11LLVMContextENS_8ArrayRefISt4pairIjPNS_16AttributeSetNodeEEEE
   fun:_ZN4llvm12AttributeSet3getERNS_11LLVMContextENS_8ArrayRefIS0_EE
   fun:_ZNK4llvm12AttributeSet13addAttributesERNS_11LLVMContextEjS0_
   fun:_ZN4llvm8Function13addAttributesEjNS_12AttributeSetE
   fun:LLVMAddTargetDependentFunctionAttr
   obj:*
   obj:*
   obj:*
   obj:*
   obj:*
   obj:*
}
{
   <insert_a_suppression_name_here>
   Memcheck:Leak
   match-leak-kinds: possible
   fun:calloc
   obj:*
   obj:*
   obj:*
   obj:*
   obj:*
   obj:*
   obj:*
   obj:/usr/lib/libGLX_mesa.so.0.0.0
   obj:/usr/lib/libGLX_mesa.so.0.0.0
   obj:/usr/lib/libGLX_mesa.so.0.0.0
   fun:glXCreateContext
}
{
   <insert_a_suppression_name_here>
   Memcheck:Leak
   match-leak-kinds: possible
   fun:_Znwm
   fun:_ZN4llvm4UsernwEmj
   fun:_ZN4llvm11ConstantInt3getERNS_11LLVMContextERKNS_5APIntE
   fun:_ZN4llvm12SelectionDAG11getConstantERKNS_5APIntERKNS_5SDLocENS_3EVTEbb
   fun:_ZN4llvm12SelectionDAG11getConstantEmRKNS_5SDLocENS_3EVTEbb
   obj:/usr/lib/libLLVM-3.9.so
   obj:/usr/lib/libLLVM-3.9.so
   obj:/usr/lib/libLLVM-3.9.so
   fun:_ZNK4llvm17X86TargetLowering14LowerOperationENS_7SDValueERNS_12SelectionDAGE
   obj:/usr/lib/libLLVM-3.9.so
   fun:_ZN4llvm12SelectionDAG8LegalizeEv
   fun:_ZN4llvm16SelectionDAGISel17CodeGenAndEmitDAGEv
}
{
   <insert_a_suppression_name_here>
   Memcheck:Leak
   match-leak-kinds: possible
   fun:_Znwm
   fun:_ZN4llvm4UsernwEmj
   fun:_ZN4llvm22ConstantDataSequential7getImplENS_9StringRefEPNS_4TypeE
   fun:_ZN4llvm18ConstantDataVector3getERNS_11LLVMContextENS_8ArrayRefIjEE
   fun:_ZN4llvm14ConstantVector7getImplENS_8ArrayRefIPNS_8ConstantEEE
   fun:_ZN4llvm14ConstantVector3getENS_8ArrayRefIPNS_8ConstantEEE
   fun:_ZN4llvm27ConstantFoldCastInstructionEjPNS_8ConstantEPNS_4TypeE
   obj:/usr/lib/libLLVM-3.9.so
   obj:/usr/lib/libLLVM-3.9.so
   fun:_ZN4llvm23ConstantFoldCastOperandEjPNS_8ConstantEPNS_4TypeERKNS_10DataLayoutE
   fun:_ZN4llvm19MachineConstantPool20getConstantPoolIndexEPKNS_8ConstantEj
   obj:/usr/lib/libLLVM-3.9.so
}
{
   <insert_a_suppression_name_here>
   Memcheck:Leak
   match-leak-kinds: possible
   fun:malloc
   fun:_ZN4llvm22ConstantDataSequential7getImplENS_9StringRefEPNS_4TypeE
   fun:_ZN4llvm18ConstantDataVector3getERNS_11LLVMContextENS_8ArrayRefIjEE
   fun:_ZN4llvm14ConstantVector7getImplENS_8ArrayRefIPNS_8ConstantEEE
   fun:_ZN4llvm14ConstantVector3getENS_8ArrayRefIPNS_8ConstantEEE
   fun:_ZN4llvm29ConstantFoldBinaryInstructionEjPNS_8ConstantES1_
   fun:_ZN4llvm12ConstantExpr3getEjPNS_8ConstantES2_jPNS_4TypeE
   fun:_ZN4llvm28ConstantFoldBinaryOpOperandsEjPNS_8ConstantES1_RKNS_10DataLayoutE
   obj:/usr/lib/libLLVM-3.9.so
   obj:/usr/lib/libLLVM-3.9.so
   obj:/usr/lib/libLLVM-3.9.so
   obj:/usr/lib/libLLVM-3.9.so
}
{
   <insert_a_suppression_name_here>
   Memcheck:Leak
   match-leak-kinds: possible
   fun:calloc
   fun:_ZN4llvm13StringMapImpl4initEj
   fun:_ZN4llvm13StringMapImpl15LookupBucketForENS_9StringRefE
   fun:_ZN4llvm15LLVMContextImpl20getOrInsertBundleTagENS_9StringRefE
   fun:_ZN4llvm11LLVMContextC1Ev
   fun:LLVMContextCreate
   obj:*
   obj:*
   obj:*
   obj:*
   obj:*
   obj:/usr/lib/libGLX_mesa.so.0.0.0
}
{
   <insert_a_suppression_name_here>
   Memcheck:Leak
   match-leak-kinds: possible
   fun:_Znwm
   fun:_ZN4llvm12AttributeSet7getImplERNS_11LLVMContextENS_8ArrayRefISt4pairIjPNS_16AttributeSetNodeEEEE
   fun:_ZN4llvm12AttributeSet3getERNS_11LLVMContextENS_8ArrayRefIS0_EE
   fun:_ZNK4llvm12AttributeSet13addAttributesERNS_11LLVMContextEjS0_
   fun:_ZN4llvm8Function13addAttributesEjNS_12AttributeSetE
   fun:_ZN4llvm8Argument7addAttrENS_12AttributeSetE
   fun:LLVMAddAttribute
   obj:*
   obj:*
   obj:*
   obj:*
   obj:*
}
{
   <insert_a_suppression_name_here>
   Memcheck:Leak
   match-leak-kinds: possible
   fun:malloc
   obj:*
   obj:*
   obj:*
   obj:*
   obj:*
   obj:*
   obj:*
   obj:*
   obj:*
   obj:*
   obj:/usr/lib/libGLX_mesa.so.0.0.0
}
{
   <insert_a_suppression_name_here>
   Memcheck:Leak
   match-leak-kinds: possible
   fun:_Znwm
   fun:_ZN4llvm4UsernwEmj
   fun:_ZN4llvm11ConstantInt3getERNS_11LLVMContextERKNS_5APIntE
   fun:_ZN4llvm11ConstantInt3getEPNS_11IntegerTypeEmb
   obj:*
   obj:*
   obj:*
   obj:*
   obj:*
   obj:*
   obj:*
   obj:*
}
{
   <insert_a_suppression_name_here>
   Memcheck:Leak
   match-leak-kinds: possible
   fun:_Znwm
   fun:_ZN4llvm4UsernwEmj
   fun:_ZN4llvm22ConstantDataSequential7getImplENS_9StringRefEPNS_4TypeE
   fun:_ZN4llvm18ConstantDataVector5getFPERNS_11LLVMContextENS_8ArrayRefIjEE
   fun:_ZN4llvm14ConstantVector7getImplENS_8ArrayRefIPNS_8ConstantEEE
   fun:_ZN4llvm14ConstantVector3getENS_8ArrayRefIPNS_8ConstantEEE
   fun:LLVMConstVector
   obj:*
   obj:*
   obj:*
   obj:*
   obj:*
}
{
   <insert_a_suppression_name_here>
   Memcheck:Leak
   match-leak-kinds: possible
   fun:_Znwm
   fun:_ZN4llvm4UsernwEmj
   fun:_ZN4llvm22ConstantDataSequential7getImplENS_9StringRefEPNS_4TypeE
   fun:_ZN4llvm18ConstantDataVector5getFPERNS_11LLVMContextENS_8ArrayRefIjEE
   fun:_ZN4llvm14ConstantVector7getImplENS_8ArrayRefIPNS_8ConstantEEE
   fun:_ZN4llvm14ConstantVector3getENS_8ArrayRefIPNS_8ConstantEEE
   fun:LLVMConstVector
   obj:*
   obj:*
   obj:*
   obj:*
   obj:*
}
{
   <insert_a_suppression_name_here>
   Memcheck:Leak
   match-leak-kinds: possible
   fun:_Znwm
   fun:_ZN4llvm4UsernwEmj
   fun:_ZN4llvm14ConstantVector3getENS_8ArrayRefIPNS_8ConstantEEE
   fun:_ZN4llvm36ConstantFoldInsertElementInstructionEPNS_8ConstantES1_S1_
   fun:_ZN4llvm12ConstantExpr16getInsertElementEPNS_8ConstantES2_S2_PNS_4TypeE
   fun:LLVMBuildInsertElement
   obj:*
   obj:*
   obj:*
   obj:*
   obj:*
   obj:*
}
{
   <insert_a_suppression_name_here>
   Memcheck:Leak
   match-leak-kinds: possible
   fun:_Znwm
   fun:_ZN4llvm4UsernwEmj
   fun:_ZN4llvm14ConstantVector3getENS_8ArrayRefIPNS_8ConstantEEE
   fun:_ZN4llvm36ConstantFoldInsertElementInstructionEPNS_8ConstantES1_S1_
   fun:_ZN4llvm12ConstantExpr16getInsertElementEPNS_8ConstantES2_S2_PNS_4TypeE
   fun:LLVMBuildInsertElement
   obj:*
   obj:*
   obj:*
   obj:*
   obj:*
   obj:*
}
{
   <insert_a_suppression_name_here>
   Memcheck:Leak
   match-leak-kinds: possible
   fun:_Znwm
   fun:_ZN4llvm4UsernwEmj
   fun:_ZN4llvm14ConstantVector3getENS_8ArrayRefIPNS_8ConstantEEE
   fun:_ZN4llvm36ConstantFoldInsertElementInstructionEPNS_8ConstantES1_S1_
   fun:_ZN4llvm12ConstantExpr16getInsertElementEPNS_8ConstantES2_S2_PNS_4TypeE
   fun:LLVMBuildInsertElement
   obj:*
   obj:*
   obj:*
   obj:*
   obj:*
   obj:*
}
{
   <insert_a_suppression_name_here>
   Memcheck:Leak
   match-leak-kinds: possible
   fun:calloc
   obj:*
   obj:*
   obj:*
   obj:*
   obj:*
   obj:*
   obj:*
   obj:/usr/lib/libGLX_mesa.so.0.0.0
   obj:/usr/lib/libGLX_mesa.so.0.0.0
   obj:/usr/lib/libGLX_mesa.so.0.0.0
   fun:glXCreateContext
}
{
   <insert_a_suppression_name_here>
   Memcheck:Leak
   match-leak-kinds: possible
   fun:calloc
   obj:*
   obj:*
   obj:*
   obj:*
   obj:*
   obj:*
   obj:*
   obj:*
   obj:/usr/lib/libGLX_mesa.so.0.0.0
   obj:/usr/lib/libGLX_mesa.so.0.0.0
   obj:/usr/lib/libGLX_mesa.so.0.0.0
}
{
   <insert_a_suppression_name_here>
   Memcheck:Leak
   match-leak-kinds: possible
   fun:_Znwm
   fun:_ZN4llvm4UsernwEmj
   fun:_ZN4llvm10ConstantFP3getERNS_11LLVMContextERKNS_7APFloatE
   fun:_ZN4llvm10ConstantFP3getEPNS_4TypeEd
   obj:*
   obj:*
   obj:*
   obj:*
   obj:*
   obj:*
   obj:*
   obj:*
}
{
   <insert_a_suppression_name_here>
   Memcheck:Leak
   match-leak-kinds: possible
   fun:_Znwm
   fun:_ZN4llvm4UsernwEmj
   fun:_ZN4llvm10ConstantFP3getERNS_11LLVMContextERKNS_7APFloatE
   fun:_ZN4llvm10ConstantFP3getEPNS_4TypeEd
   obj:*
   obj:*
   obj:*
   obj:*
   obj:*
   obj:*
   obj:*
   obj:*
}
{
   <insert_a_suppression_name_here>
   Memcheck:Leak
   match-leak-kinds: possible
   fun:_Znwm
   fun:_ZN4llvm4UsernwEmj
   fun:_ZN4llvm11ConstantInt3getERNS_11LLVMContextERKNS_5APIntE
   fun:_ZN4llvm11ConstantInt3getEPNS_11IntegerTypeEmb
   obj:*
   obj:*
   obj:*
   obj:*
   obj:*
   obj:*
   obj:*
   obj:*
}
{
   <insert_a_suppression_name_here>
   Memcheck:Leak
   match-leak-kinds: possible
   fun:_Znwm
   fun:_ZN4llvm4UsernwEmj
   fun:_ZN4llvm11ConstantInt3getERNS_11LLVMContextERKNS_5APIntE
   fun:_ZN4llvm11ConstantInt3getEPNS_4TypeERKNS_5APIntE
   obj:/usr/lib/libLLVM-3.9.so
   fun:_ZN4llvm23ConstantFoldCastOperandEjPNS_8ConstantEPNS_4TypeERKNS_10DataLayoutE
   fun:_ZN4llvm19MachineConstantPool20getConstantPoolIndexEPKNS_8ConstantEj
   obj:/usr/lib/libLLVM-3.9.so
   obj:/usr/lib/libLLVM-3.9.so
   fun:_ZN4llvm18ScheduleDAGSDNodes12EmitScheduleERNS_26MachineInstrBundleIteratorINS_12MachineInstrEEE
   fun:_ZN4llvm16SelectionDAGISel17CodeGenAndEmitDAGEv
   fun:_ZN4llvm16SelectionDAGISel20SelectAllBasicBlocksERKNS_8FunctionE
}
{
   <insert_a_suppression_name_here>
   Memcheck:Leak
   match-leak-kinds: possible
   fun:_Znwm
   fun:_ZN4llvm4UsernwEmj
   fun:_ZN4llvm11ConstantInt3getERNS_11LLVMContextERKNS_5APIntE
   fun:_ZN4llvm11ConstantInt3getEPNS_11IntegerTypeEmb
   obj:*
   obj:*
   obj:*
   obj:*
   obj:*
   obj:*
   obj:*
   obj:*
}
{
   <insert_a_suppression_name_here>
   Memcheck:Leak
   match-leak-kinds: possible
   fun:_Znwm
   fun:_ZN4llvm4UsernwEmj
   fun:_ZN4llvm11ConstantInt3getERNS_11LLVMContextERKNS_5APIntE
   fun:_ZN4llvm11ConstantInt3getEPNS_11IntegerTypeEmb
   obj:*
   obj:*
   obj:*
   obj:*
   obj:*
   obj:*
   obj:*
   obj:*
}
{
   <insert_a_suppression_name_here>
   Memcheck:Leak
   match-leak-kinds: possible
   fun:_Znwm
   fun:_ZN4llvm4UsernwEmj
   fun:_ZN4llvm11ConstantInt3getERNS_11LLVMContextERKNS_5APIntE
   fun:_ZN4llvm12SelectionDAG11getConstantERKNS_5APIntERKNS_5SDLocENS_3EVTEbb
   fun:_ZN4llvm12SelectionDAG11getConstantEmRKNS_5SDLocENS_3EVTEbb
   fun:_ZN4llvm19SelectionDAGBuilder20visitTargetIntrinsicERKNS_8CallInstEj
   fun:_ZN4llvm19SelectionDAGBuilder18visitIntrinsicCallERKNS_8CallInstEj
   fun:_ZN4llvm19SelectionDAGBuilder9visitCallERKNS_8CallInstE
   fun:_ZN4llvm19SelectionDAGBuilder5visitERKNS_11InstructionE
   fun:_ZN4llvm16SelectionDAGISel16SelectBasicBlockENS_14ilist_iteratorIKNS_11InstructionEEES4_Rb
   fun:_ZN4llvm16SelectionDAGISel20SelectAllBasicBlocksERKNS_8FunctionE
   fun:_ZN4llvm16SelectionDAGISel20runOnMachineFunctionERNS_15MachineFunctionE
}
{
   <insert_a_suppression_name_here>
   Memcheck:Leak
   match-leak-kinds: possible
   fun:_Znwm
   fun:_ZN4llvm4UsernwEmj
   fun:_ZN4llvm11ConstantInt3getERNS_11LLVMContextERKNS_5APIntE
   fun:_ZN4llvm12SelectionDAG11getConstantERKNS_5APIntERKNS_5SDLocENS_3EVTEbb
   fun:_ZN4llvm12SelectionDAG22FoldConstantArithmeticEjRKNS_5SDLocENS_3EVTEPKNS_14ConstantSDNodeES7_
   fun:_ZN4llvm12SelectionDAG22FoldConstantArithmeticEjRKNS_5SDLocENS_3EVTEPNS_6SDNodeES6_
   obj:/usr/lib/libLLVM-3.9.so
   obj:/usr/lib/libLLVM-3.9.so
   obj:/usr/lib/libLLVM-3.9.so
   obj:/usr/lib/libLLVM-3.9.so
   fun:_ZN4llvm12SelectionDAG7CombineENS_12CombineLevelERNS_9AAResultsENS_10CodeGenOpt5LevelE
   fun:_ZN4llvm16SelectionDAGISel17CodeGenAndEmitDAGEv
}
{
   <insert_a_suppression_name_here>
   Memcheck:Leak
   match-leak-kinds: possible
   fun:calloc
   obj:*
   obj:*
   obj:*
   obj:*
   obj:*
   obj:*
   obj:*
   obj:*
   obj:*
   obj:/usr/lib/libGLX_mesa.so.0.0.0
   obj:/usr/lib/libGLX_mesa.so.0.0.0
}
{
   <insert_a_suppression_name_here>
   Memcheck:Leak
   match-leak-kinds: possible
   fun:_Znwm
   fun:_ZN4llvm12AttributeSet7getImplERNS_11LLVMContextENS_8ArrayRefISt4pairIjPNS_16AttributeSetNodeEEEE
   fun:_ZN4llvm12AttributeSet3getERNS_11LLVMContextENS_8ArrayRefISt4pairIjNS_9AttributeEEEE
   fun:_ZN4llvm12AttributeSet3getERNS_11LLVMContextEjRKNS_11AttrBuilderE
   fun:LLVMAddAttribute
   obj:*
   obj:*
   obj:*
   obj:*
   obj:*
   obj:*
   obj:*
}
{
   <insert_a_suppression_name_here>
   Memcheck:Leak
   match-leak-kinds: possible
   fun:calloc
   fun:_ZN4llvm13StringMapImpl11RehashTableEj
   fun:_ZNK4llvm11LLVMContext11getMDKindIDENS_9StringRefE
   fun:_ZN4llvm11LLVMContextC1Ev
   fun:LLVMContextCreate
   obj:*
   obj:*
   obj:*
   obj:*
   obj:*
   obj:/usr/lib/libGLX_mesa.so.0.0.0
   obj:/usr/lib/libGLX_mesa.so.0.0.0
}
{
   <insert_a_suppression_name_here>
   Memcheck:Leak
   match-leak-kinds: possible
   fun:calloc
   obj:*
   obj:*
   obj:*
   obj:*
   obj:*
   obj:*
   obj:*
   obj:*
   obj:*
   obj:/usr/lib/libGLX_mesa.so.0.0.0
   obj:/usr/lib/libGLX_mesa.so.0.0.0
}
{
   <insert_a_suppression_name_here>
   Memcheck:Leak
   match-leak-kinds: possible
   fun:_Znwm
   fun:_ZN4llvm4UsernwEmj
   fun:_ZN4llvm14ConstantVector3getENS_8ArrayRefIPNS_8ConstantEEE
   fun:_ZN4llvm36ConstantFoldInsertElementInstructionEPNS_8ConstantES1_S1_
   fun:_ZN4llvm12ConstantExpr16getInsertElementEPNS_8ConstantES2_S2_PNS_4TypeE
   fun:LLVMBuildInsertElement
   obj:*
   obj:*
   obj:*
   obj:*
   obj:*
   obj:*
}
{
   <insert_a_suppression_name_here>
   Memcheck:Leak
   match-leak-kinds: possible
   fun:calloc
   obj:*
   obj:*
   obj:*
   obj:*
   obj:*
   obj:*
   obj:*
   obj:*
   obj:*
   obj:/usr/lib/libGLX_mesa.so.0.0.0
   obj:/usr/lib/libGLX_mesa.so.0.0.0
}
{
   <insert_a_suppression_name_here>
   Memcheck:Leak
   match-leak-kinds: possible
   fun:_Znwm
   fun:_ZN4llvm4UsernwEmj
   fun:_ZN4llvm22ConstantDataSequential7getImplENS_9StringRefEPNS_4TypeE
   fun:_ZN4llvm18ConstantDataVector3getERNS_11LLVMContextENS_8ArrayRefIjEE
   fun:_ZN4llvm14ConstantVector7getImplENS_8ArrayRefIPNS_8ConstantEEE
   fun:_ZN4llvm14ConstantVector3getENS_8ArrayRefIPNS_8ConstantEEE
   fun:_ZN4llvm29ConstantFoldBinaryInstructionEjPNS_8ConstantES1_
   fun:_ZN4llvm12ConstantExpr3getEjPNS_8ConstantES2_jPNS_4TypeE
   fun:_ZN4llvm28ConstantFoldBinaryOpOperandsEjPNS_8ConstantES1_RKNS_10DataLayoutE
   obj:/usr/lib/libLLVM-3.9.so
   obj:/usr/lib/libLLVM-3.9.so
   obj:/usr/lib/libLLVM-3.9.so
}
{
   <insert_a_suppression_name_here>
   Memcheck:Leak
   match-leak-kinds: possible
   fun:_Znwm
   fun:_ZN4llvm12AttributeSet7getImplERNS_11LLVMContextENS_8ArrayRefISt4pairIjPNS_16AttributeSetNodeEEEE
   fun:_ZN4llvm12AttributeSet3getERNS_11LLVMContextENS_8ArrayRefIS0_EE
   fun:_ZNK4llvm12AttributeSet13addAttributesERNS_11LLVMContextEjS0_
   fun:_ZN4llvm8Function13addAttributesEjNS_12AttributeSetE
   fun:_ZN4llvm8Argument7addAttrENS_12AttributeSetE
   fun:LLVMAddAttribute
   obj:*
   obj:*
   obj:*
   obj:*
   obj:*
}
{
   <insert_a_suppression_name_here>
   Memcheck:Leak
   match-leak-kinds: possible
   fun:_Znwm
   obj:/usr/lib/libLLVM-3.9.so
   obj:/usr/lib/libLLVM-3.9.so
   fun:_ZN4llvm14ConstantVector3getENS_8ArrayRefIPNS_8ConstantEEE
   fun:_ZN4llvm36ConstantFoldInsertElementInstructionEPNS_8ConstantES1_S1_
   fun:_ZN4llvm12ConstantExpr16getInsertElementEPNS_8ConstantES2_S2_PNS_4TypeE
   fun:LLVMBuildInsertElement
   obj:*
   obj:*
   obj:*
   obj:*
   obj:*
}
{
   <insert_a_suppression_name_here>
   Memcheck:Leak
   match-leak-kinds: possible
   fun:_Znwm
   fun:_ZN4llvm4UsernwEmj
   fun:_ZN4llvm14ConstantVector3getENS_8ArrayRefIPNS_8ConstantEEE
   fun:_ZN4llvm36ConstantFoldInsertElementInstructionEPNS_8ConstantES1_S1_
   fun:_ZN4llvm12ConstantExpr16getInsertElementEPNS_8ConstantES2_S2_PNS_4TypeE
   fun:LLVMBuildInsertElement
   obj:*
   obj:*
   obj:*
   obj:*
   obj:*
   obj:*
}
{
   <insert_a_suppression_name_here>
   Memcheck:Leak
   match-leak-kinds: possible
   fun:_Znam
   fun:_ZN4llvm5APInt14AssignSlowCaseERKS0_
   fun:_ZN4llvm11ConstantInt3getERNS_11LLVMContextERKNS_5APIntE
   fun:_ZN4llvm11ConstantInt3getEPNS_4TypeERKNS_5APIntE
   obj:/usr/lib/libLLVM-3.9.so
   fun:_ZN4llvm23ConstantFoldCastOperandEjPNS_8ConstantEPNS_4TypeERKNS_10DataLayoutE
   fun:_ZN4llvm19MachineConstantPool20getConstantPoolIndexEPKNS_8ConstantEj
   obj:/usr/lib/libLLVM-3.9.so
   obj:/usr/lib/libLLVM-3.9.so
   fun:_ZN4llvm18ScheduleDAGSDNodes12EmitScheduleERNS_26MachineInstrBundleIteratorINS_12MachineInstrEEE
   fun:_ZN4llvm16SelectionDAGISel17CodeGenAndEmitDAGEv
   fun:_ZN4llvm16SelectionDAGISel20SelectAllBasicBlocksERKNS_8FunctionE
}
{
   <insert_a_suppression_name_here>
   Memcheck:Leak
   match-leak-kinds: possible
   fun:_Znam
   fun:_ZN4llvm5APInt12initSlowCaseERKS0_
   fun:_ZN4llvm11ConstantInt3getERNS_11LLVMContextERKNS_5APIntE
   fun:_ZN4llvm11ConstantInt3getEPNS_4TypeERKNS_5APIntE
   obj:/usr/lib/libLLVM-3.9.so
   fun:_ZN4llvm23ConstantFoldCastOperandEjPNS_8ConstantEPNS_4TypeERKNS_10DataLayoutE
   fun:_ZN4llvm19MachineConstantPool20getConstantPoolIndexEPKNS_8ConstantEj
   obj:/usr/lib/libLLVM-3.9.so
   obj:/usr/lib/libLLVM-3.9.so
   fun:_ZN4llvm18ScheduleDAGSDNodes12EmitScheduleERNS_26MachineInstrBundleIteratorINS_12MachineInstrEEE
   fun:_ZN4llvm16SelectionDAGISel17CodeGenAndEmitDAGEv
   fun:_ZN4llvm16SelectionDAGISel20SelectAllBasicBlocksERKNS_8FunctionE
}
{
   <insert_a_suppression_name_here>
   Memcheck:Leak
   match-leak-kinds: possible
   fun:malloc
   obj:*
   obj:*
   obj:*
   obj:*
   obj:*
   obj:*
   obj:*
   obj:/usr/lib/libGLX_mesa.so.0.0.0
   obj:/usr/lib/libGLX_mesa.so.0.0.0
   obj:/usr/lib/libGLX_mesa.so.0.0.0
   fun:glXCreateContext
}
{
   <insert_a_suppression_name_here>
   Memcheck:Leak
   match-leak-kinds: possible
   fun:calloc
   fun:_ZN4llvm14FoldingSetImplC1Ej
   fun:_ZN4llvm15LLVMContextImplC1ERNS_11LLVMContextE
   fun:_ZN4llvm11LLVMContextC1Ev
   fun:LLVMContextCreate
   obj:*
   obj:*
   obj:*
   obj:*
   obj:*
   obj:/usr/lib/libGLX_mesa.so.0.0.0
   obj:/usr/lib/libGLX_mesa.so.0.0.0
}
{
   <insert_a_suppression_name_here>
   Memcheck:Leak
   match-leak-kinds: possible
   fun:calloc
   fun:_ZN4llvm14FoldingSetImplC1Ej
   fun:_ZN4llvm15LLVMContextImplC1ERNS_11LLVMContextE
   fun:_ZN4llvm11LLVMContextC1Ev
   fun:LLVMContextCreate
   obj:*
   obj:*
   obj:*
   obj:*
   obj:*
   obj:/usr/lib/libGLX_mesa.so.0.0.0
   obj:/usr/lib/libGLX_mesa.so.0.0.0
}
{
   <insert_a_suppression_name_here>
   Memcheck:Leak
   match-leak-kinds: possible
   fun:calloc
   fun:_ZN4llvm14FoldingSetImplC1Ej
   fun:_ZN4llvm15LLVMContextImplC1ERNS_11LLVMContextE
   fun:_ZN4llvm11LLVMContextC1Ev
   fun:LLVMContextCreate
   obj:*
   obj:*
   obj:*
   obj:*
   obj:*
   obj:/usr/lib/libGLX_mesa.so.0.0.0
   obj:/usr/lib/libGLX_mesa.so.0.0.0
}
{
   <insert_a_suppression_name_here>
   Memcheck:Leak
   match-leak-kinds: possible
   fun:calloc
   obj:*
   obj:*
   obj:*
   obj:*
   obj:*
   obj:*
   obj:*
   obj:/usr/lib/libGLX_mesa.so.0.0.0
   obj:/usr/lib/libGLX_mesa.so.0.0.0
   obj:/usr/lib/libGLX.so.0.0.0
   obj:/usr/lib/libGLX.so.0.0.0
}
{
   <insert_a_suppression_name_here>
   Memcheck:Leak
   match-leak-kinds: possible
   fun:malloc
   obj:*
   obj:*
   obj:*
   obj:*
   obj:*
   obj:*
   obj:*
   obj:/usr/lib/libGLX_mesa.so.0.0.0
   obj:/usr/lib/libGLX_mesa.so.0.0.0
   obj:/usr/lib/libGLX_mesa.so.0.0.0
   fun:glXCreateContext
}
{
   <insert_a_suppression_name_here>
   Memcheck:Leak
   match-leak-kinds: possible
   fun:malloc
   obj:*
   obj:*
   obj:*
   obj:*
   obj:*
   obj:*
   obj:*
   obj:/usr/lib/libGLX_mesa.so.0.0.0
   obj:/usr/lib/libGLX_mesa.so.0.0.0
   obj:/usr/lib/libGLX_mesa.so.0.0.0
   fun:glXCreateContext
}
{
   <insert_a_suppression_name_here>
   Memcheck:Leak
   match-leak-kinds: possible
   fun:_Znwm
   fun:_ZN4llvm4UsernwEmj
   fun:_ZN4llvm14ConstantVector3getENS_8ArrayRefIPNS_8ConstantEEE
   fun:_ZN4llvm36ConstantFoldInsertElementInstructionEPNS_8ConstantES1_S1_
   fun:_ZN4llvm12ConstantExpr16getInsertElementEPNS_8ConstantES2_S2_PNS_4TypeE
   fun:LLVMBuildInsertElement
   obj:*
   obj:*
   obj:*
   obj:*
   obj:*
   obj:*
}
{
   <insert_a_suppression_name_here>
   Memcheck:Leak
   match-leak-kinds: possible
   fun:_Znwm
   fun:_ZN4llvm12AttributeSet7getImplERNS_11LLVMContextENS_8ArrayRefISt4pairIjPNS_16AttributeSetNodeEEEE
   fun:_ZN4llvm12AttributeSet3getERNS_11LLVMContextENS_8ArrayRefIS0_EE
   fun:_ZNK4llvm12AttributeSet13addAttributesERNS_11LLVMContextEjS0_
   fun:_ZN4llvm8Function13addAttributesEjNS_12AttributeSetE
   fun:_ZN4llvm8Argument7addAttrENS_12AttributeSetE
   fun:LLVMAddAttribute
   obj:*
   obj:*
   obj:*
   obj:*
   obj:*
}
{
   <insert_a_suppression_name_here>
   Memcheck:Leak
   match-leak-kinds: possible
   fun:malloc
   obj:*
   obj:*
   obj:*
   obj:*
   obj:*
   obj:*
   obj:*
   obj:*
   obj:*
   obj:*
   obj:*
}
{
   <insert_a_suppression_name_here>
   Memcheck:Leak
   match-leak-kinds: possible
   fun:malloc
   obj:*
   obj:*
   obj:*
   obj:*
   obj:*
   obj:*
   obj:*
   obj:*
   obj:*
   obj:*
   obj:*
}
{
   <insert_a_suppression_name_here>
   Memcheck:Leak
   match-leak-kinds: possible
   fun:malloc
   obj:*
   obj:*
   obj:*
   obj:*
   obj:*
   obj:*
   obj:*
   obj:*
   obj:*
   obj:*
   obj:*
}
{
   <insert_a_suppression_name_here>
   Memcheck:Leak
   match-leak-kinds: possible
   fun:_Znwm
   fun:_ZN4llvm4UsernwEmj
   fun:_ZN4llvm11ConstantInt3getERNS_11LLVMContextERKNS_5APIntE
   fun:_ZN4llvm27ConstantFoldCastInstructionEjPNS_8ConstantEPNS_4TypeE
   obj:/usr/lib/libLLVM-3.9.so
   fun:_ZN4llvm27ConstantFoldCastInstructionEjPNS_8ConstantEPNS_4TypeE
   obj:/usr/lib/libLLVM-3.9.so
   obj:/usr/lib/libLLVM-3.9.so
   fun:_ZN4llvm23ConstantFoldCastOperandEjPNS_8ConstantEPNS_4TypeERKNS_10DataLayoutE
   fun:_ZN4llvm19MachineConstantPool20getConstantPoolIndexEPKNS_8ConstantEj
   obj:/usr/lib/libLLVM-3.9.so
   obj:/usr/lib/libLLVM-3.9.so
}
{
   <insert_a_suppression_name_here>
   Memcheck:Leak
   match-leak-kinds: possible
   fun:_Znwm
   fun:_ZN4llvm4UsernwEmj
   fun:_ZN4llvm22ConstantDataSequential7getImplENS_9StringRefEPNS_4TypeE
   fun:_ZN4llvm18ConstantDataVector3getERNS_11LLVMContextENS_8ArrayRefIjEE
   fun:_ZN4llvm14ConstantVector7getImplENS_8ArrayRefIPNS_8ConstantEEE
   fun:_ZN4llvm14ConstantVector3getENS_8ArrayRefIPNS_8ConstantEEE
   fun:_ZN4llvm27ConstantFoldCastInstructionEjPNS_8ConstantEPNS_4TypeE
   obj:/usr/lib/libLLVM-3.9.so
   obj:/usr/lib/libLLVM-3.9.so
   fun:_ZN4llvm23ConstantFoldCastOperandEjPNS_8ConstantEPNS_4TypeERKNS_10DataLayoutE
   fun:_ZN4llvm19MachineConstantPool20getConstantPoolIndexEPKNS_8ConstantEj
   obj:/usr/lib/libLLVM-3.9.so
}
{
   <insert_a_suppression_name_here>
   Memcheck:Leak
   match-leak-kinds: possible
   fun:_Znwm
   fun:_ZN4llvm4UsernwEmj
   fun:_ZN4llvm11ConstantInt3getERNS_11LLVMContextERKNS_5APIntE
   fun:_ZN4llvm11ConstantInt3getEPNS_11IntegerTypeEmb
   obj:*
   obj:*
   obj:*
   obj:*
   obj:*
   obj:*
   obj:*
   obj:*
}
{
   <insert_a_suppression_name_here>
   Memcheck:Leak
   match-leak-kinds: possible
   fun:malloc
   obj:*
   obj:*
   obj:*
   obj:*
   obj:*
   obj:*
   obj:*
   obj:*
   obj:*
   obj:*
   obj:/usr/lib/libGLX_mesa.so.0.0.0
}
{
   <insert_a_suppression_name_here>
   Memcheck:Leak
   match-leak-kinds: possible
   fun:malloc
   obj:*
   obj:*
   obj:*
   obj:*
   obj:*
   obj:*
   obj:*
   obj:*
   obj:*
   obj:*
   obj:/usr/lib/libGLX_mesa.so.0.0.0
}
{
   <insert_a_suppression_name_here>
   Memcheck:Leak
   match-leak-kinds: possible
   fun:_Znwm
   obj:/usr/lib/libLLVM-3.9.so
   fun:_ZN4llvm10UndefValue3getEPNS_4TypeE
   obj:*
   obj:*
   obj:*
   obj:*
   obj:*
   obj:*
   obj:*
   obj:*
   obj:*
}
{
   <insert_a_suppression_name_here>
   Memcheck:Leak
   match-leak-kinds: possible
   fun:_Znwm
   obj:/usr/lib/libLLVM-3.9.so
   fun:_ZN4llvm21ConstantAggregateZero3getEPNS_4TypeE
   fun:_ZN4llvm8Constant12getNullValueEPNS_4TypeE
   obj:*
   obj:*
   obj:*
   obj:*
   obj:*
   obj:*
   obj:*
   obj:*
}
{
   <insert_a_suppression_name_here>
   Memcheck:Leak
   match-leak-kinds: possible
   fun:_Znwm
   fun:_ZN4llvm11IntegerType3getERNS_11LLVMContextEj
   fun:_ZN4llvm15ScalarEvolution11getUDivExprEPKNS_4SCEVES3_
   fun:_ZN4llvm15ScalarEvolution16getUDivExactExprEPKNS_4SCEVES3_
   fun:_ZN4llvm15ScalarEvolution10createSCEVEPNS_5ValueE
   fun:_ZN4llvm15ScalarEvolution7getSCEVEPNS_5ValueE
   fun:_ZN4llvm7IVUsers12AddUsersImplEPNS_11InstructionERNS_15SmallPtrSetImplIPNS_4LoopEEE
   fun:_ZN4llvm7IVUsers12AddUsersImplEPNS_11InstructionERNS_15SmallPtrSetImplIPNS_4LoopEEE
   fun:_ZN4llvm7IVUsers12AddUsersImplEPNS_11InstructionERNS_15SmallPtrSetImplIPNS_4LoopEEE
   fun:_ZN4llvm7IVUsers21AddUsersIfInterestingEPNS_11InstructionE
   fun:_ZN4llvm7IVUsersC1EPNS_4LoopEPNS_15AssumptionCacheEPNS_8LoopInfoEPNS_13DominatorTreeEPNS_15ScalarEvolutionE
   fun:_ZN4llvm18IVUsersWrapperPass9runOnLoopEPNS_4LoopERNS_13LPPassManagerE
}
{
   <insert_a_suppression_name_here>
   Memcheck:Leak
   match-leak-kinds: possible
   fun:_Znwm
   obj:/usr/lib/libLLVM-3.9.so
   fun:_ZN4llvm19ConstantPointerNull3getEPNS_11PointerTypeE
   obj:*
   obj:*
   obj:*
   obj:*
   obj:*
   obj:*
   obj:*
   obj:*
   obj:*
}
{
   <insert_a_suppression_name_here>
   Memcheck:Leak
   match-leak-kinds: possible
   fun:malloc
   obj:*
   obj:*
   obj:*
   obj:*
   obj:*
   obj:*
   obj:*
   obj:*
   obj:*
   obj:*
   obj:*
}
{
   <insert_a_suppression_name_here>
   Memcheck:Leak
   match-leak-kinds: possible
   fun:malloc
   obj:*
   obj:*
   obj:*
   obj:*
   obj:*
   obj:*
   obj:*
   obj:*
   obj:*
   obj:*
   obj:*
}
{
   <insert_a_suppression_name_here>
   Memcheck:Leak
   match-leak-kinds: possible
   fun:calloc
   obj:*
   obj:*
   obj:*
   obj:*
   obj:*
   obj:*
   obj:*
   obj:*
   obj:*
   obj:/usr/lib/libGLX_mesa.so.0.0.0
   obj:/usr/lib/libGLX_mesa.so.0.0.0
}
{
   <insert_a_suppression_name_here>
   Memcheck:Leak
   match-leak-kinds: possible
   fun:malloc
   obj:*
   obj:*
   obj:*
   obj:*
   obj:*
   obj:*
   obj:*
   obj:*
   obj:*
   obj:*
   obj:/usr/lib/libGLX_mesa.so.0.0.0
}
{
   <insert_a_suppression_name_here>
   Memcheck:Leak
   match-leak-kinds: possible
   fun:_Znwm
   fun:_ZN4llvm4UsernwEmj
   fun:_ZN4llvm11ConstantInt3getERNS_11LLVMContextERKNS_5APIntE
   fun:_ZN4llvm11ConstantInt3getEPNS_4TypeERKNS_5APIntE
   obj:/usr/lib/libLLVM-3.9.so
   fun:_ZN4llvm23ConstantFoldCastOperandEjPNS_8ConstantEPNS_4TypeERKNS_10DataLayoutE
   fun:_ZN4llvm19MachineConstantPool20getConstantPoolIndexEPKNS_8ConstantEj
   obj:/usr/lib/libLLVM-3.9.so
   obj:/usr/lib/libLLVM-3.9.so
   fun:_ZN4llvm18ScheduleDAGSDNodes12EmitScheduleERNS_26MachineInstrBundleIteratorINS_12MachineInstrEEE
   fun:_ZN4llvm16SelectionDAGISel17CodeGenAndEmitDAGEv
   fun:_ZN4llvm16SelectionDAGISel20SelectAllBasicBlocksERKNS_8FunctionE
}
{
   <insert_a_suppression_name_here>
   Memcheck:Leak
   match-leak-kinds: possible
   fun:calloc
   fun:_ZN4llvm13StringMapImpl11RehashTableEj
   fun:_ZN4llvm22ConstantDataSequential7getImplENS_9StringRefEPNS_4TypeE
   fun:_ZN4llvm18ConstantDataVector3getERNS_11LLVMContextENS_8ArrayRefIjEE
   fun:_ZN4llvm14ConstantVector7getImplENS_8ArrayRefIPNS_8ConstantEEE
   fun:_ZN4llvm14ConstantVector3getENS_8ArrayRefIPNS_8ConstantEEE
   fun:_ZN4llvm29ConstantFoldBinaryInstructionEjPNS_8ConstantES1_
   fun:_ZN4llvm12ConstantExpr3getEjPNS_8ConstantES2_jPNS_4TypeE
   fun:_ZN4llvm28ConstantFoldBinaryOpOperandsEjPNS_8ConstantES1_RKNS_10DataLayoutE
   obj:/usr/lib/libLLVM-3.9.so
   obj:/usr/lib/libLLVM-3.9.so
   obj:/usr/lib/libLLVM-3.9.so
}
{
   <insert_a_suppression_name_here>
   Memcheck:Leak
   match-leak-kinds: possible
   fun:memalign
   fun:posix_memalign
   obj:*
   obj:*
   obj:*
   obj:*
   obj:*
   obj:*
   obj:*
   obj:/usr/lib/libGLX_mesa.so.0.0.0
   obj:/usr/lib/libGLX_mesa.so.0.0.0
   obj:/usr/lib/libGLX_mesa.so.0.0.0
}
{
   <insert_a_suppression_name_here>
   Memcheck:Leak
   match-leak-kinds: possible
   fun:memalign
   fun:posix_memalign
   obj:*
   obj:*
   obj:*
   obj:*
   obj:*
   obj:*
   obj:*
   obj:*
   obj:*
   obj:/usr/lib/libGLX_mesa.so.0.0.0
}
{
   <insert_a_suppression_name_here>
   Memcheck:Leak
   match-leak-kinds: possible
   fun:_Znwm
   obj:/usr/lib/libLLVM-3.9.so
   fun:_ZN4llvm10ConstantFP3getERNS_11LLVMContextERKNS_7APFloatE
   fun:_ZN4llvm10ConstantFP3getEPNS_4TypeEd
   obj:*
   obj:*
   obj:*
   obj:*
   obj:*
   obj:*
   obj:*
   obj:*
}
{
   <insert_a_suppression_name_here>
   Memcheck:Leak
   match-leak-kinds: possible
   fun:malloc
   obj:*
   obj:*
   obj:*
   obj:*
   obj:*
   obj:*
   obj:*
   obj:/usr/lib/libGLX_mesa.so.0.0.0
   obj:/usr/lib/libGLX_mesa.so.0.0.0
   obj:/usr/lib/libGLX_mesa.so.0.0.0
   fun:glXCreateContext
}
{
   <insert_a_suppression_name_here>
   Memcheck:Leak
   match-leak-kinds: possible
   fun:_Znwm
   fun:_ZN4llvm4UsernwEmj
   fun:_ZN4llvm11ConstantInt3getERNS_11LLVMContextERKNS_5APIntE
   fun:_ZN4llvm27ConstantFoldCastInstructionEjPNS_8ConstantEPNS_4TypeE
   obj:/usr/lib/libLLVM-3.9.so
   obj:/usr/lib/libLLVM-3.9.so
   obj:/usr/lib/libLLVM-3.9.so
   obj:/usr/lib/libLLVM-3.9.so
   fun:_ZN4llvm24InstructionCombiningPass13runOnFunctionERNS_8FunctionE
   fun:_ZN4llvm13FPPassManager13runOnFunctionERNS_8FunctionE
   fun:_ZN4llvm6legacy23FunctionPassManagerImpl3runERNS_8FunctionE
   fun:_ZN4llvm6legacy19FunctionPassManager3runERNS_8FunctionE
}
{
   <insert_a_suppression_name_here>
   Memcheck:Leak
   match-leak-kinds: possible
   fun:_Znwm
   fun:_ZN4llvm11LLVMContextC1Ev
   fun:LLVMContextCreate
   obj:*
   obj:*
   obj:*
   obj:*
   obj:*
   obj:/usr/lib/libGLX_mesa.so.0.0.0
   obj:/usr/lib/libGLX_mesa.so.0.0.0
   obj:/usr/lib/libGLX_mesa.so.0.0.0
   fun:glXCreateContext
}
{
   <insert_a_suppression_name_here>
   Memcheck:Leak
   match-leak-kinds: possible
   fun:_Znwm
   fun:_ZN4llvm4UsernwEmj
   fun:_ZN4llvm11ConstantInt3getERNS_11LLVMContextERKNS_5APIntE
   fun:_ZN4llvm12SelectionDAG11getConstantERKNS_5APIntERKNS_5SDLocENS_3EVTEbb
   fun:_ZN4llvm19SelectionDAGBuilder18visitGetElementPtrERKNS_4UserE
   fun:_ZN4llvm19SelectionDAGBuilder5visitERKNS_11InstructionE
   fun:_ZN4llvm16SelectionDAGISel16SelectBasicBlockENS_14ilist_iteratorIKNS_11InstructionEEES4_Rb
   fun:_ZN4llvm16SelectionDAGISel20SelectAllBasicBlocksERKNS_8FunctionE
   fun:_ZN4llvm16SelectionDAGISel20runOnMachineFunctionERNS_15MachineFunctionE
   obj:/usr/lib/libLLVM-3.9.so
   fun:_ZN4llvm19MachineFunctionPass13runOnFunctionERNS_8FunctionE
   fun:_ZN4llvm13FPPassManager13runOnFunctionERNS_8FunctionE
}
{
   <insert_a_suppression_name_here>
   Memcheck:Leak
   match-leak-kinds: possible
   fun:_Znwm
   fun:_ZN4llvm4UsernwEmj
   fun:_ZN4llvm11ConstantInt3getERNS_11LLVMContextERKNS_5APIntE
   fun:_ZN4llvm12SelectionDAG11getConstantERKNS_5APIntERKNS_5SDLocENS_3EVTEbb
   fun:_ZN4llvm12SelectionDAG11getConstantEmRKNS_5SDLocENS_3EVTEbb
   obj:/usr/lib/libLLVM-3.9.so
   obj:/usr/lib/libLLVM-3.9.so
   fun:_ZN4llvm16SelectionDAGISel16SelectCodeCommonEPNS_6SDNodeEPKhj
   obj:/usr/lib/libLLVM-3.9.so
   fun:_ZN4llvm16SelectionDAGISel22DoInstructionSelectionEv
   fun:_ZN4llvm16SelectionDAGISel17CodeGenAndEmitDAGEv
   fun:_ZN4llvm16SelectionDAGISel20SelectAllBasicBlocksERKNS_8FunctionE
}
{
   <insert_a_suppression_name_here>
   Memcheck:Leak
   match-leak-kinds: possible
   fun:malloc
   obj:*
   obj:*
   obj:*
   obj:*
   obj:*
   obj:*
   obj:*
   obj:*
   obj:*
   obj:*
   obj:/usr/lib/libGLX_mesa.so.0.0.0
}
{
   <insert_a_suppression_name_here>
   Memcheck:Leak
   match-leak-kinds: possible
   fun:malloc
   obj:*
   obj:*
   obj:*
   obj:*
   obj:*
   obj:*
   obj:*
   obj:*
   obj:*
   obj:*
   obj:/usr/lib/libGLX_mesa.so.0.0.0
}
{
   <insert_a_suppression_name_here>
   Memcheck:Leak
   match-leak-kinds: possible
   fun:memalign
   fun:posix_memalign
   obj:*
   obj:*
   obj:*
   obj:*
   obj:*
   obj:*
   obj:*
   obj:*
   obj:*
   obj:*
}
{
   <insert_a_suppression_name_here>
   Memcheck:Leak
   match-leak-kinds: possible
   fun:memalign
   fun:posix_memalign
   obj:*
   obj:*
   obj:*
   obj:*
   obj:*
   obj:*
   obj:*
   obj:*
   obj:*
   obj:*
}
{
   <insert_a_suppression_name_here>
   Memcheck:Leak
   match-leak-kinds: possible
   fun:calloc
   obj:*
   obj:*
   obj:*
   obj:*
   obj:*
   obj:*
   obj:*
   obj:*
   obj:*
   obj:*
   obj:/usr/lib/libGLX_mesa.so.0.0.0
}
{
   <insert_a_suppression_name_here>
   Memcheck:Leak
   match-leak-kinds: possible
   fun:calloc
   obj:*
   obj:*
   obj:*
   obj:*
   obj:*
   obj:*
   obj:*
   obj:*
   obj:*
   obj:/usr/lib/libGLX_mesa.so.0.0.0
   obj:/usr/lib/libGLX_mesa.so.0.0.0
}
{
   <insert_a_suppression_name_here>
   Memcheck:Leak
   match-leak-kinds: possible
   fun:calloc
   obj:*
   obj:*
   obj:*
   obj:*
   obj:*
   obj:*
   obj:*
   obj:*
   obj:*
   obj:/usr/lib/libGLX_mesa.so.0.0.0
   obj:/usr/lib/libGLX_mesa.so.0.0.0
}
{
   <insert_a_suppression_name_here>
   Memcheck:Leak
   match-leak-kinds: possible
   fun:memalign
   fun:posix_memalign
   obj:*
   obj:*
   obj:*
   obj:*
   obj:*
   obj:*
   obj:*
   obj:*
   obj:/usr/lib/libGLX_mesa.so.0.0.0
   obj:/usr/lib/libGLX_mesa.so.0.0.0
}
{
   <insert_a_suppression_name_here>
   Memcheck:Leak
   match-leak-kinds: possible
   fun:malloc
   obj:*
   obj:*
   obj:*
   obj:*
   obj:*
   obj:*
   obj:*
   obj:*
   obj:*
   obj:*
   obj:/usr/lib/libGLX_mesa.so.0.0.0
}
{
   <insert_a_suppression_name_here>
   Memcheck:Leak
   match-leak-kinds: possible
   fun:malloc
   obj:*
   obj:*
   obj:*
   obj:*
   obj:*
   obj:*
   obj:*
   obj:*
   obj:*
   obj:*
   obj:/usr/lib/libGLX_mesa.so.0.0.0
}
{
   <insert_a_suppression_name_here>
   Memcheck:Leak
   match-leak-kinds: possible
   fun:malloc
   fun:_ZN4llvm12FunctionType3getEPNS_4TypeENS_8ArrayRefIS2_EEb
   fun:LLVMFunctionType
   obj:*
   obj:*
   obj:*
   obj:*
   obj:*
   obj:*
   obj:*
   obj:*
   obj:*
}
{
   <insert_a_suppression_name_here>
   Memcheck:Leak
   match-leak-kinds: possible
   fun:_Znwm
   fun:_ZN4llvm15ValueHandleBase12AddToUseListEv
   fun:_ZN4llvm15AliasSetTracker13ASTCallbackVHC1EPNS_5ValueEPS0_
   fun:_ZN4llvm15AliasSetTracker21getAliasSetForPointerEPNS_5ValueEmRKNS_9AAMDNodesEPb
   fun:_ZN4llvm15AliasSetTracker3addEPNS_8LoadInstE
   fun:_ZN4llvm15AliasSetTracker3addERNS_10BasicBlockE
   obj:/usr/lib/libLLVM-3.9.so
   obj:/usr/lib/libLLVM-3.9.so
   fun:_ZN4llvm13LPPassManager13runOnFunctionERNS_8FunctionE
   fun:_ZN4llvm13FPPassManager13runOnFunctionERNS_8FunctionE
   fun:_ZN4llvm6legacy23FunctionPassManagerImpl3runERNS_8FunctionE
   fun:_ZN4llvm6legacy19FunctionPassManager3runERNS_8FunctionE
}
{
   <insert_a_suppression_name_here>
   Memcheck:Leak
   match-leak-kinds: possible
   fun:malloc
   obj:*
   obj:*
   obj:*
   obj:*
   obj:*
   obj:*
   obj:*
   obj:*
   obj:*
   obj:*
   obj:/usr/lib/libGLX_mesa.so.0.0.0
}
{
   <insert_a_suppression_name_here>
   Memcheck:Leak
   match-leak-kinds: possible
   fun:malloc
   obj:*
   obj:*
   obj:*
   obj:*
   obj:*
   obj:*
   obj:*
   obj:*
   obj:*
   obj:*
   obj:/usr/lib/libGLX_mesa.so.0.0.0
}
{
   <insert_a_suppression_name_here>
   Memcheck:Leak
   match-leak-kinds: possible
   fun:malloc
   obj:*
   obj:*
   obj:*
   obj:*
   obj:*
   obj:*
   obj:*
   obj:/usr/lib/libGLX_mesa.so.0.0.0
   obj:/usr/lib/libGLX_mesa.so.0.0.0
   obj:/usr/lib/libGLX_mesa.so.0.0.0
   fun:glXCreateContext
}
{
   <insert_a_suppression_name_here>
   Memcheck:Leak
   match-leak-kinds: possible
   fun:_Znwm
   obj:*
   obj:*
   obj:*
   obj:*
   obj:*
   obj:*
   obj:*
   obj:*
   obj:*
   obj:*
   obj:*
}
{
   <insert_a_suppression_name_here>
   Memcheck:Leak
   match-leak-kinds: possible
   fun:calloc
   obj:*
   obj:*
   obj:*
   obj:*
   obj:*
   obj:*
   obj:*
   obj:*
   obj:*
   obj:*
   obj:*
}
{
   <insert_a_suppression_name_here>
   Memcheck:Leak
   match-leak-kinds: possible
   fun:calloc
   obj:*
   obj:*
   obj:*
   obj:*
   obj:*
   obj:*
   obj:*
   obj:*
   obj:*
   obj:/usr/lib/libGLX_mesa.so.0.0.0
   obj:/usr/lib/libGLX_mesa.so.0.0.0
}
{
   <insert_a_suppression_name_here>
   Memcheck:Leak
   match-leak-kinds: possible
   fun:calloc
   obj:*
   obj:*
   obj:*
   obj:*
   obj:*
   obj:*
   obj:*
   obj:*
   obj:/usr/lib/libGLX_mesa.so.0.0.0
   obj:/usr/lib/libGLX_mesa.so.0.0.0
   obj:/usr/lib/libGLX_mesa.so.0.0.0
}
{
   <insert_a_suppression_name_here>
   Memcheck:Leak
   match-leak-kinds: possible
   fun:calloc
   obj:*
   obj:*
   obj:*
   obj:*
   obj:*
   obj:*
   obj:*
   obj:*
   obj:/usr/lib/libGLX_mesa.so.0.0.0
   obj:/usr/lib/libGLX_mesa.so.0.0.0
   obj:/usr/lib/libGLX_mesa.so.0.0.0
}
{
   <insert_a_suppression_name_here>
   Memcheck:Leak
   match-leak-kinds: possible
   fun:_Znwm
   fun:_ZN4llvm5Value12setValueNameEPNS_14StringMapEntryIPS0_EE
   fun:_ZN4llvm5Value11setNameImplERKNS_5TwineE
   fun:_ZN4llvm5Value7setNameERKNS_5TwineE
   obj:/usr/lib/libLLVM-3.9.so
   obj:/usr/lib/libLLVM-3.9.so
   obj:/usr/lib/libLLVM-3.9.so
   obj:/usr/lib/libLLVM-3.9.so
   fun:_ZN4llvm4SROA11runOnAllocaERNS_10AllocaInstE
   fun:_ZN4llvm4SROA7runImplERNS_8FunctionERNS_13DominatorTreeERNS_15AssumptionCacheE
   obj:/usr/lib/libLLVM-3.9.so
   fun:_ZN4llvm13FPPassManager13runOnFunctionERNS_8FunctionE
}
{
   <insert_a_suppression_name_here>
   Memcheck:Leak
   match-leak-kinds: possible
   fun:calloc
   obj:*
   obj:*
   obj:*
   obj:*
   obj:*
   obj:*
   obj:*
   obj:*
   obj:*
   obj:/usr/lib/libGLX_mesa.so.0.0.0
   obj:/usr/lib/libGLX_mesa.so.0.0.0
}
{
   <insert_a_suppression_name_here>
   Memcheck:Leak
   match-leak-kinds: possible
   fun:malloc
   obj:*
   obj:*
   obj:*
   obj:*
   obj:*
   obj:*
   obj:*
   obj:/usr/lib/libGLX_mesa.so.0.0.0
   obj:/usr/lib/libGLX_mesa.so.0.0.0
   obj:/usr/lib/libGLX_mesa.so.0.0.0
   fun:glXCreateContext
}
{
   <insert_a_suppression_name_here>
   Memcheck:Leak
   match-leak-kinds: possible
   fun:malloc
   obj:*
   obj:*
   obj:*
   obj:*
   obj:*
   obj:*
   obj:*
   obj:/usr/lib/libGLX_mesa.so.0.0.0
   obj:/usr/lib/libGLX_mesa.so.0.0.0
   obj:/usr/lib/libGLX_mesa.so.0.0.0
   fun:glXCreateContext
}
{
   <insert_a_suppression_name_here>
   Memcheck:Leak
   match-leak-kinds: possible
   fun:_Znwm
   obj:/usr/lib/libLLVM-3.9.so
   fun:_ZN4llvm11ConstantInt3getERNS_11LLVMContextERKNS_5APIntE
   fun:_ZN4llvm11ConstantInt3getEPNS_11IntegerTypeEmb
   obj:*
   obj:*
   obj:*
   obj:*
   obj:*
   obj:*
   obj:*
   obj:*
}
{
   <insert_a_suppression_name_here>
   Memcheck:Leak
   match-leak-kinds: possible
   fun:calloc
   obj:*
   obj:*
   obj:*
   obj:*
   obj:*
   obj:*
   obj:*
   obj:*
   obj:*
   obj:*
   obj:*
}
{
   <insert_a_suppression_name_here>
   Memcheck:Leak
   match-leak-kinds: possible
   fun:calloc
   obj:*
   obj:*
   obj:*
   obj:*
   obj:*
   obj:*
   obj:*
   obj:/usr/lib/libGLX_mesa.so.0.0.0
   obj:/usr/lib/libGLX_mesa.so.0.0.0
   obj:/usr/lib/libGLX_mesa.so.0.0.0
   fun:glXCreateContext
}
{
   <insert_a_suppression_name_here>
   Memcheck:Leak
   match-leak-kinds: possible
   fun:memalign
   fun:posix_memalign
   obj:*
   obj:*
   obj:*
   obj:*
   obj:*
   obj:*
   obj:*
   obj:*
   obj:*
   obj:*
}
{
   <insert_a_suppression_name_here>
   Memcheck:Leak
   match-leak-kinds: possible
   fun:calloc
   obj:*
   obj:*
   obj:*
   obj:*
   obj:*
   obj:*
   obj:*
   obj:*
   obj:*
   obj:*
   obj:*
}
{
   <insert_a_suppression_name_here>
   Memcheck:Leak
   match-leak-kinds: possible
   fun:calloc
   obj:*
   obj:*
   obj:*
   obj:*
   obj:*
   obj:*
   obj:*
   obj:*
   obj:*
   obj:*
   obj:*
}
{
   <insert_a_suppression_name_here>
   Memcheck:Leak
   match-leak-kinds: possible
   fun:calloc
   obj:*
   obj:*
   obj:*
   obj:*
   obj:*
   obj:*
   obj:*
   obj:*
   obj:*
   obj:*
   obj:*
}
{
   <insert_a_suppression_name_here>
   Memcheck:Leak
   match-leak-kinds: possible
   fun:calloc
   obj:*
   obj:*
   obj:*
   obj:*
   obj:*
   obj:*
   obj:*
   obj:*
   obj:*
   obj:*
   obj:*
}
{
   <insert_a_suppression_name_here>
   Memcheck:Leak
   match-leak-kinds: possible
   fun:calloc
   obj:*
   obj:*
   obj:*
   obj:*
   obj:*
   obj:*
   obj:*
   obj:*
   obj:*
   obj:*
   obj:*
}
{
   <insert_a_suppression_name_here>
   Memcheck:Leak
   match-leak-kinds: possible
   fun:calloc
   obj:*
   obj:*
   obj:*
   obj:*
   obj:*
   obj:*
   obj:*
   obj:*
   obj:*
   obj:*
   obj:/usr/lib/libGLX_mesa.so.0.0.0
}
{
   <insert_a_suppression_name_here>
   Memcheck:Leak
   match-leak-kinds: possible
   fun:calloc
   obj:*
   obj:*
   obj:*
   obj:*
   obj:*
   obj:*
   obj:*
   obj:*
   obj:*
   obj:*
   obj:/usr/lib/libGLX_mesa.so.0.0.0
}
{
   <insert_a_suppression_name_here>
   Memcheck:Leak
   match-leak-kinds: possible
   fun:calloc
   obj:*
   obj:*
   obj:*
   obj:*
   obj:*
   obj:*
   obj:*
   obj:*
   obj:*
   obj:*
   obj:/usr/lib/libGLX_mesa.so.0.0.0
}
{
   <insert_a_suppression_name_here>
   Memcheck:Leak
   match-leak-kinds: possible
   fun:malloc
   obj:*
   obj:*
   obj:*
   obj:*
   obj:*
   obj:*
   obj:*
   obj:*
   obj:*
   obj:*
   obj:/usr/lib/libGLX_mesa.so.0.0.0
}
{
   <insert_a_suppression_name_here>
   Memcheck:Leak
   match-leak-kinds: possible
   fun:calloc
   obj:*
   obj:*
   obj:*
   obj:*
   obj:*
   obj:*
   obj:*
   obj:*
   obj:*
   obj:*
   obj:/usr/lib/libGLX_mesa.so.0.0.0
}
{
   <insert_a_suppression_name_here>
   Memcheck:Leak
   match-leak-kinds: possible
   fun:calloc
   obj:*
   obj:*
   obj:*
   obj:*
   obj:*
   obj:*
   obj:*
   obj:*
   obj:*
   obj:*
   obj:/usr/lib/libGLX_mesa.so.0.0.0
}
{
   <insert_a_suppression_name_here>
   Memcheck:Leak
   match-leak-kinds: possible
   fun:calloc
   obj:*
   obj:*
   obj:*
   obj:*
   obj:*
   obj:*
   obj:*
   obj:*
   obj:*
   obj:*
   obj:/usr/lib/libGLX_mesa.so.0.0.0
}
{
   <insert_a_suppression_name_here>
   Memcheck:Leak
   match-leak-kinds: possible
   fun:calloc
   obj:*
   obj:*
   obj:*
   obj:*
   obj:*
   obj:*
   obj:*
   obj:*
   obj:*
   obj:*
   obj:/usr/lib/libGLX_mesa.so.0.0.0
}
{
   <insert_a_suppression_name_here>
   Memcheck:Leak
   match-leak-kinds: possible
   fun:calloc
   obj:*
   obj:*
   obj:*
   obj:*
   obj:*
   obj:*
   obj:*
   obj:*
   obj:*
   obj:*
   obj:/usr/lib/libGLX_mesa.so.0.0.0
}
{
   <insert_a_suppression_name_here>
   Memcheck:Leak
   match-leak-kinds: possible
   fun:calloc
   obj:*
   obj:*
   obj:*
   obj:*
   obj:*
   obj:*
   obj:*
   obj:*
   obj:*
   obj:/usr/lib/libGLX_mesa.so.0.0.0
   obj:/usr/lib/libGLX_mesa.so.0.0.0
}
{
   <insert_a_suppression_name_here>
   Memcheck:Leak
   match-leak-kinds: possible
   fun:calloc
   obj:*
   obj:*
   obj:*
   obj:*
   obj:*
   obj:*
   obj:*
   obj:*
   obj:*
   obj:/usr/lib/libGLX_mesa.so.0.0.0
   obj:/usr/lib/libGLX_mesa.so.0.0.0
}
{
   <insert_a_suppression_name_here>
   Memcheck:Leak
   match-leak-kinds: possible
   fun:calloc
   obj:*
   obj:*
   obj:*
   obj:*
   obj:*
   obj:*
   obj:*
   obj:*
   obj:*
   obj:/usr/lib/libGLX_mesa.so.0.0.0
   obj:/usr/lib/libGLX_mesa.so.0.0.0
}
{
   <insert_a_suppression_name_here>
   Memcheck:Leak
   match-leak-kinds: possible
   fun:malloc
   obj:*
   obj:*
   obj:*
   obj:*
   obj:*
   obj:*
   obj:*
   obj:*
   obj:*
   obj:*
   obj:*
}
{
   <insert_a_suppression_name_here>
   Memcheck:Leak
   match-leak-kinds: possible
   fun:memalign
   fun:posix_memalign
   obj:*
   obj:*
   obj:*
   obj:*
   obj:*
   obj:*
   obj:*
   obj:*
   obj:/usr/lib/libGLX_mesa.so.0.0.0
   obj:/usr/lib/libGLX_mesa.so.0.0.0
}
{
   <insert_a_suppression_name_here>
   Memcheck:Leak
   match-leak-kinds: possible
   fun:calloc
   obj:*
   obj:*
   obj:*
   obj:*
   obj:*
   obj:*
   obj:*
   obj:/usr/lib/libGLX_mesa.so.0.0.0
   obj:/usr/lib/libGLX_mesa.so.0.0.0
   obj:/usr/lib/libGLX_mesa.so.0.0.0
   fun:glXCreateContext
}
{
   <insert_a_suppression_name_here>
   Memcheck:Leak
   match-leak-kinds: possible
   fun:memalign
   fun:posix_memalign
   obj:*
   obj:*
   obj:*
   obj:*
   obj:*
   obj:*
   obj:*
   obj:*
   obj:/usr/lib/libGLX_mesa.so.0.0.0
   obj:/usr/lib/libGLX_mesa.so.0.0.0
}
{
   <insert_a_suppression_name_here>
   Memcheck:Leak
   match-leak-kinds: possible
   fun:memalign
   fun:posix_memalign
   obj:*
   obj:*
   obj:*
   obj:*
   obj:*
   obj:*
   obj:*
   obj:*
   obj:/usr/lib/libGLX_mesa.so.0.0.0
   obj:/usr/lib/libGLX_mesa.so.0.0.0
}

{
   <insert_a_suppression_name_here>
   Memcheck:Leak
   match-leak-kinds: possible
   fun:realloc
   obj:*
   obj:*
   obj:*
   obj:*
   obj:*
   obj:*
   obj:*
   obj:*
   obj:*
   obj:*
   obj:*
}

{
   <insert_a_suppression_name_here>
   Memcheck:Cond
   fun:strlen
   fun:XSetClassHint
   fun:lumen__window__create
   fun:mmi__window__lumen__define
   fun:mmi__window__lumen__forge__to_window
   fun:mmi__window__lumen__forge__new_window
   fun:mmi__window__lumen__window_creator
   fun:mmi__window__forge__new_window
   fun:mmi__forge__new_gui_applet
   fun:_ada_launch_drop_ball_on_box
   fun:main
}
{
   <insert_a_suppression_name_here>
   Memcheck:Cond
   fun:strcpy
   fun:XSetClassHint
   fun:lumen__window__create
   fun:mmi__window__lumen__define
   fun:mmi__window__lumen__forge__to_window
   fun:mmi__window__lumen__forge__new_window
   fun:mmi__window__lumen__window_creator
   fun:mmi__window__forge__new_window
   fun:mmi__forge__new_gui_applet
   fun:_ada_launch_drop_ball_on_box
   fun:main
}

{
   <insert_a_suppression_name_here>
   Memcheck:Leak
   match-leak-kinds: definite
   fun:calloc
   obj:*
   obj:*
   obj:/usr/lib/libGLX_mesa.so.0.0.0
   obj:/usr/lib/libGLX_mesa.so.0.0.0
   obj:/usr/lib/libGLX_mesa.so.0.0.0
   fun:glXCreateContext
   fun:lumen__window__create
   fun:mmi__window__lumen__define
   fun:mmi__window__lumen__forge__to_window
   fun:mmi__window__lumen__forge__new_window
   fun:mmi__window__lumen__window_creator
}


